; generated by ARM C/C++ Compiler, RVCT4.0 [Build 728]
; commandline ArmCC [--debug -c --asm --interleave -o.\out\main.o --depend=.\out\main.d --cpu=Cortex-M3 --apcs=interwork -O0 -I.\user\inc -I.\stdperiph_driver\inc -I.\cmsis -ID:\ARM\INC -ID:\ARM\INC\ST\STM32F10x -D__MICROLIB -DUSE_STDPERIPH_DRIVER -DSTM32F10X_MD --omf_browse=.\out\main.crf user\src\main.c]
                          THUMB

                          AREA ||.text||, CODE, READONLY, ALIGN=2

                  getCheckSum PROC
;;;63     
;;;64     char getCheckSum(char *packet)
000000  4601              MOV      r1,r0
;;;65     {
;;;66     	char i=0,checksum=0;
000002  2200              MOVS     r2,#0
000004  2000              MOVS     r0,#0
;;;67     	for(i = 1;i<8;i++)
000006  2201              MOVS     r2,#1
000008  e004              B        |L1.20|
                  |L1.10|
;;;68     	{
;;;69     		checksum += packet[i];
00000a  5c8b              LDRB     r3,[r1,r2]
00000c  4403              ADD      r3,r3,r0
00000e  b2d8              UXTB     r0,r3
000010  1c53              ADDS     r3,r2,#1              ;67
000012  b2da              UXTB     r2,r3                 ;67
                  |L1.20|
000014  2a08              CMP      r2,#8                 ;67
000016  dbf8              BLT      |L1.10|
;;;70       }
;;;71     	checksum = 0xff -checksum;
000018  f1c000ff          RSB      r0,r0,#0xff
;;;72     	checksum += 1;
00001c  1c43              ADDS     r3,r0,#1
00001e  b2d8              UXTB     r0,r3
;;;73     	return checksum;
;;;74     }
000020  4770              BX       lr
;;;75     	
                          ENDP

                  Do_Xor PROC
;;;76     u8 Do_Xor(u8 *p,u8 length) //数组，异或操作数组结束长度 指针参数不支持inline关键字？？？
000022  b510              PUSH     {r4,lr}
;;;77     {
000024  4602              MOV      r2,r0
;;;78       u8 i,result;
;;;79       result = *p;
000026  7810              LDRB     r0,[r2,#0]
;;;80       for(i=1;i<length;i++)
000028  2301              MOVS     r3,#1
00002a  e005              B        |L1.56|
                  |L1.44|
;;;81       {
;;;82         result ^= *(++p);
00002c  1c54              ADDS     r4,r2,#1
00002e  4622              MOV      r2,r4
000030  7824              LDRB     r4,[r4,#0]
000032  4060              EORS     r0,r0,r4
000034  1c5c              ADDS     r4,r3,#1              ;80
000036  b2e3              UXTB     r3,r4                 ;80
                  |L1.56|
000038  428b              CMP      r3,r1                 ;80
00003a  dbf7              BLT      |L1.44|
;;;83       }
;;;84       return result;
;;;85     }
00003c  bd10              POP      {r4,pc}
;;;86     
                          ENDP

                  speak_one_time PROC
;;;87     void speak_one_time()
00003e  b510              PUSH     {r4,lr}
;;;88     {
;;;89     	SPEAKER_EN;//20161110 need del
000040  f44f5080          MOV      r0,#0x1000
000044  49fb              LDR      r1,|L1.1076|
000046  6008              STR      r0,[r1,#0]
;;;90     	delay_ms(100);
000048  f04f0064          MOV      r0,#0x64
00004c  f7fffffe          BL       delay_ms
;;;91     	SPEAKER_DISABLE;
000050  f44f5080          MOV      r0,#0x1000
000054  49f8              LDR      r1,|L1.1080|
000056  f8c10c14          STR      r0,[r1,#0xc14]
;;;92     }
00005a  bd10              POP      {r4,pc}
;;;93     
                          ENDP

                  clear_PM_rec PROC
;;;94     
;;;95     void clear_PM_rec()
00005c  2000              MOVS     r0,#0
;;;96     {
;;;97     	int i;
;;;98     	for(i=0;i<PM_DATA_NUM;i++)
00005e  e003              B        |L1.104|
                  |L1.96|
;;;99     	{
;;;100    		PM25DMABuffer[i]= 0;
000060  2100              MOVS     r1,#0
000062  4af6              LDR      r2,|L1.1084|
000064  5411              STRB     r1,[r2,r0]
000066  1c40              ADDS     r0,r0,#1              ;98
                  |L1.104|
000068  2823              CMP      r0,#0x23              ;98
00006a  dbf9              BLT      |L1.96|
;;;101    	}
;;;102    }
00006c  4770              BX       lr
;;;103    void decode_PM_data()
                          ENDP

                  decode_PM_data PROC
00006e  2000              MOVS     r0,#0
;;;104    {
;;;105    	int i,data_st_p;
;;;106    	
;;;107    	for(i=0;i<PM_DATA_NUM;i++)
000070  e006              B        |L1.128|
                  |L1.114|
;;;108    	{
;;;109    		if(PM25DMABuffer[i]==0x4D)
000072  4af2              LDR      r2,|L1.1084|
000074  5c12              LDRB     r2,[r2,r0]
000076  2a4d              CMP      r2,#0x4d
000078  d101              BNE      |L1.126|
;;;110    		{
;;;111    			data_st_p = i;
00007a  4601              MOV      r1,r0
;;;112    		  break;
00007c  e002              B        |L1.132|
                  |L1.126|
00007e  1c40              ADDS     r0,r0,#1              ;107
                  |L1.128|
000080  2823              CMP      r0,#0x23              ;107
000082  dbf6              BLT      |L1.114|
                  |L1.132|
000084  bf00              NOP      
;;;113    		}
;;;114    	}
;;;115    	if(data_st_p<(PM_DATA_NUM-17))
000086  2912              CMP      r1,#0x12
000088  da25              BGE      |L1.214|
;;;116    	{
;;;117    		if(PM25DMABuffer[data_st_p+1] == 0x50)
00008a  4bec              LDR      r3,|L1.1084|
00008c  1c4a              ADDS     r2,r1,#1
00008e  5c9a              LDRB     r2,[r3,r2]
000090  2a50              CMP      r2,#0x50
000092  d120              BNE      |L1.214|
;;;118    		{
;;;119    		  PM2_5_concentration.Buf8[1]=PM25DMABuffer[data_st_p+4];
000094  1d0a              ADDS     r2,r1,#4
000096  5c9a              LDRB     r2,[r3,r2]
000098  4be9              LDR      r3,|L1.1088|
00009a  705a              STRB     r2,[r3,#1]
;;;120    			PM2_5_concentration.Buf8[0]=PM25DMABuffer[data_st_p+5];
00009c  4be7              LDR      r3,|L1.1084|
00009e  1d4a              ADDS     r2,r1,#5
0000a0  5c9a              LDRB     r2,[r3,r2]
0000a2  4be7              LDR      r3,|L1.1088|
0000a4  701a              STRB     r2,[r3,#0]
;;;121    			PM2_5_value.Buf8[3] = PM25DMABuffer[data_st_p+8];
0000a6  4be5              LDR      r3,|L1.1084|
0000a8  f1010208          ADD      r2,r1,#8
0000ac  5c9a              LDRB     r2,[r3,r2]
0000ae  4be5              LDR      r3,|L1.1092|
0000b0  70da              STRB     r2,[r3,#3]
;;;122    			PM2_5_value.Buf8[2] = PM25DMABuffer[data_st_p+9];
0000b2  4be2              LDR      r3,|L1.1084|
0000b4  f1010209          ADD      r2,r1,#9
0000b8  5c9a              LDRB     r2,[r3,r2]
0000ba  4be2              LDR      r3,|L1.1092|
0000bc  709a              STRB     r2,[r3,#2]
;;;123    			PM2_5_value.Buf8[1] = PM25DMABuffer[data_st_p+10];
0000be  4bdf              LDR      r3,|L1.1084|
0000c0  f101020a          ADD      r2,r1,#0xa
0000c4  5c9a              LDRB     r2,[r3,r2]
0000c6  4bdf              LDR      r3,|L1.1092|
0000c8  705a              STRB     r2,[r3,#1]
;;;124    			PM2_5_value.Buf8[0] = PM25DMABuffer[data_st_p+8];
0000ca  4bdc              LDR      r3,|L1.1084|
0000cc  f1010208          ADD      r2,r1,#8
0000d0  5c9a              LDRB     r2,[r3,r2]
0000d2  4bdc              LDR      r3,|L1.1092|
0000d4  701a              STRB     r2,[r3,#0]
                  |L1.214|
;;;125    		}
;;;126    	}
;;;127    }
0000d6  4770              BX       lr
;;;128    
                          ENDP

                  conv_CO2_conc_str PROC
;;;129    void conv_CO2_conc_str(uint val)
0000d8  2100              MOVS     r1,#0
;;;130    {
;;;131    	uint temp= 0;
;;;132    	temp = val;
0000da  4601              MOV      r1,r0
;;;133    
;;;134    	display_CO2_conc[0] =  temp/10000 + 48;
0000dc  4608              MOV      r0,r1
0000de  f2427210          MOV      r2,#0x2710
0000e2  fbb1f2f2          UDIV     r2,r1,r2
0000e6  3230              ADDS     r2,r2,#0x30
0000e8  4bd7              LDR      r3,|L1.1096|
0000ea  701a              STRB     r2,[r3,#0]
;;;135    	temp = temp%10000;
0000ec  f2427210          MOV      r2,#0x2710
0000f0  fbb1f3f2          UDIV     r3,r1,r2
0000f4  fb021113          MLS      r1,r2,r3,r1
;;;136    	display_CO2_conc[1] =  temp/1000 + 48;
0000f8  f44f727a          MOV      r2,#0x3e8
0000fc  fbb1f2f2          UDIV     r2,r1,r2
000100  3230              ADDS     r2,r2,#0x30
000102  4bd1              LDR      r3,|L1.1096|
000104  705a              STRB     r2,[r3,#1]
;;;137    	temp = temp%1000;
000106  f44f727a          MOV      r2,#0x3e8
00010a  fbb1f3f2          UDIV     r3,r1,r2
00010e  fb021113          MLS      r1,r2,r3,r1
;;;138    	display_CO2_conc[2] =  temp/100 + 48;
000112  2264              MOVS     r2,#0x64
000114  fbb1f2f2          UDIV     r2,r1,r2
000118  3230              ADDS     r2,r2,#0x30
00011a  4bcb              LDR      r3,|L1.1096|
00011c  709a              STRB     r2,[r3,#2]
;;;139    	temp = temp%100;
00011e  2264              MOVS     r2,#0x64
000120  fbb1f3f2          UDIV     r3,r1,r2
000124  fb021113          MLS      r1,r2,r3,r1
;;;140    	display_CO2_conc[3] =  temp/10 + 48;
000128  220a              MOVS     r2,#0xa
00012a  fbb1f2f2          UDIV     r2,r1,r2
00012e  3230              ADDS     r2,r2,#0x30
000130  4bc5              LDR      r3,|L1.1096|
000132  70da              STRB     r2,[r3,#3]
;;;141    	display_CO2_conc[4] =  temp%10 + 48;
000134  220a              MOVS     r2,#0xa
000136  fbb1f3f2          UDIV     r3,r1,r2
00013a  fb021213          MLS      r2,r2,r3,r1
00013e  3230              ADDS     r2,r2,#0x30
000140  4bc1              LDR      r3,|L1.1096|
000142  711a              STRB     r2,[r3,#4]
;;;142    }
000144  4770              BX       lr
;;;143    
                          ENDP

                  conv_PM_num_str PROC
;;;144    void conv_PM_num_str(uint val)
000146  2100              MOVS     r1,#0
;;;145    {
;;;146    	uint temp= 0;
;;;147    	temp = val;
000148  4601              MOV      r1,r0
;;;148    	display_num_PM[0] =  temp/10000000 + 48;
00014a  4608              MOV      r0,r1
00014c  4abf              LDR      r2,|L1.1100|
00014e  fbb1f2f2          UDIV     r2,r1,r2
000152  3230              ADDS     r2,r2,#0x30
000154  4bbe              LDR      r3,|L1.1104|
000156  701a              STRB     r2,[r3,#0]
;;;149    	temp = temp%10000000;
000158  4abc              LDR      r2,|L1.1100|
00015a  fbb1f3f2          UDIV     r3,r1,r2
00015e  fb021113          MLS      r1,r2,r3,r1
;;;150    	display_num_PM[1] =  temp/1000000 + 48;
000162  4abc              LDR      r2,|L1.1108|
000164  fbb1f2f2          UDIV     r2,r1,r2
000168  3230              ADDS     r2,r2,#0x30
00016a  4bb9              LDR      r3,|L1.1104|
00016c  705a              STRB     r2,[r3,#1]
;;;151    	temp = temp%1000000;
00016e  4ab9              LDR      r2,|L1.1108|
000170  fbb1f3f2          UDIV     r3,r1,r2
000174  fb021113          MLS      r1,r2,r3,r1
;;;152    	display_num_PM[2] =  temp/100000 + 48;
000178  4ab7              LDR      r2,|L1.1112|
00017a  fbb1f2f2          UDIV     r2,r1,r2
00017e  3230              ADDS     r2,r2,#0x30
000180  4bb3              LDR      r3,|L1.1104|
000182  709a              STRB     r2,[r3,#2]
;;;153    	temp = temp%100000;
000184  4ab4              LDR      r2,|L1.1112|
000186  fbb1f3f2          UDIV     r3,r1,r2
00018a  fb021113          MLS      r1,r2,r3,r1
;;;154    	display_num_PM[3] =  temp/10000 + 48;
00018e  f2427210          MOV      r2,#0x2710
000192  fbb1f2f2          UDIV     r2,r1,r2
000196  3230              ADDS     r2,r2,#0x30
000198  4bad              LDR      r3,|L1.1104|
00019a  70da              STRB     r2,[r3,#3]
;;;155    	temp = temp%10000;
00019c  f2427210          MOV      r2,#0x2710
0001a0  fbb1f3f2          UDIV     r3,r1,r2
0001a4  fb021113          MLS      r1,r2,r3,r1
;;;156    	display_num_PM[4] =  temp/1000 + 48;
0001a8  f44f727a          MOV      r2,#0x3e8
0001ac  fbb1f2f2          UDIV     r2,r1,r2
0001b0  3230              ADDS     r2,r2,#0x30
0001b2  4ba7              LDR      r3,|L1.1104|
0001b4  711a              STRB     r2,[r3,#4]
;;;157    	temp = temp%1000;
0001b6  f44f727a          MOV      r2,#0x3e8
0001ba  fbb1f3f2          UDIV     r3,r1,r2
0001be  fb021113          MLS      r1,r2,r3,r1
;;;158    	display_num_PM[5] =  temp/100 + 48;
0001c2  2264              MOVS     r2,#0x64
0001c4  fbb1f2f2          UDIV     r2,r1,r2
0001c8  3230              ADDS     r2,r2,#0x30
0001ca  4ba1              LDR      r3,|L1.1104|
0001cc  715a              STRB     r2,[r3,#5]
;;;159    	temp = temp%100;
0001ce  2264              MOVS     r2,#0x64
0001d0  fbb1f3f2          UDIV     r3,r1,r2
0001d4  fb021113          MLS      r1,r2,r3,r1
;;;160    	display_num_PM[6] =  temp/10 + 48;
0001d8  220a              MOVS     r2,#0xa
0001da  fbb1f2f2          UDIV     r2,r1,r2
0001de  3230              ADDS     r2,r2,#0x30
0001e0  4b9b              LDR      r3,|L1.1104|
0001e2  719a              STRB     r2,[r3,#6]
;;;161    	display_num_PM[7] =  temp% + 48;
0001e4  2230              MOVS     r2,#0x30
0001e6  fbb1f3f2          UDIV     r3,r1,r2
0001ea  fb021213          MLS      r2,r2,r3,r1
0001ee  4b98              LDR      r3,|L1.1104|
0001f0  71da              STRB     r2,[r3,#7]
;;;162    }
0001f2  4770              BX       lr
;;;163    
                          ENDP

                  conv_PM_conc_str PROC
;;;164    void conv_PM_conc_str(uint val)
0001f4  2100              MOVS     r1,#0
;;;165    {
;;;166    	uint temp= 0;
;;;167    	temp = val;
0001f6  4601              MOV      r1,r0
;;;168    	display_conc_PM[0] =  temp/10000 + 48;
0001f8  4608              MOV      r0,r1
0001fa  f2427210          MOV      r2,#0x2710
0001fe  fbb1f2f2          UDIV     r2,r1,r2
000202  3230              ADDS     r2,r2,#0x30
000204  4b95              LDR      r3,|L1.1116|
000206  701a              STRB     r2,[r3,#0]
;;;169    	temp = temp%10000;
000208  f2427210          MOV      r2,#0x2710
00020c  fbb1f3f2          UDIV     r3,r1,r2
000210  fb021113          MLS      r1,r2,r3,r1
;;;170    	display_conc_PM[1] =  temp/1000 + 48;
000214  f44f727a          MOV      r2,#0x3e8
000218  fbb1f2f2          UDIV     r2,r1,r2
00021c  3230              ADDS     r2,r2,#0x30
00021e  4b8f              LDR      r3,|L1.1116|
000220  705a              STRB     r2,[r3,#1]
;;;171    	temp = temp%1000;
000222  f44f727a          MOV      r2,#0x3e8
000226  fbb1f3f2          UDIV     r3,r1,r2
00022a  fb021113          MLS      r1,r2,r3,r1
;;;172    	display_conc_PM[2] =  temp/100 + 48;
00022e  2264              MOVS     r2,#0x64
000230  fbb1f2f2          UDIV     r2,r1,r2
000234  3230              ADDS     r2,r2,#0x30
000236  4b89              LDR      r3,|L1.1116|
000238  709a              STRB     r2,[r3,#2]
;;;173    	temp = temp%100;
00023a  2264              MOVS     r2,#0x64
00023c  fbb1f3f2          UDIV     r3,r1,r2
000240  fb021113          MLS      r1,r2,r3,r1
;;;174    	display_conc_PM[3] =  temp/10 + 48;
000244  220a              MOVS     r2,#0xa
000246  fbb1f2f2          UDIV     r2,r1,r2
00024a  3230              ADDS     r2,r2,#0x30
00024c  4b83              LDR      r3,|L1.1116|
00024e  70da              STRB     r2,[r3,#3]
;;;175    	display_conc_PM[4] =  temp%10 + 48;
000250  220a              MOVS     r2,#0xa
000252  fbb1f3f2          UDIV     r3,r1,r2
000256  fb021213          MLS      r2,r2,r3,r1
00025a  3230              ADDS     r2,r2,#0x30
00025c  4b7f              LDR      r3,|L1.1116|
00025e  711a              STRB     r2,[r3,#4]
;;;176    }
000260  4770              BX       lr
;;;177    
                          ENDP

                  delay_us_motor PROC
;;;178    void delay_us_motor(int usneed)
000262  2100              MOVS     r1,#0
;;;179    {
;;;180    	int i;
;;;181    	for(i=0;i<usneed;i++)
000264  e00d              B        |L1.642|
                  |L1.614|
;;;182    	{
;;;183    		GPIOC->ODR ^= GPIO_Pin_12;
000266  4a7e              LDR      r2,|L1.1120|
000268  68d2              LDR      r2,[r2,#0xc]
00026a  f4825280          EOR      r2,r2,#0x1000
00026e  4b7c              LDR      r3,|L1.1120|
000270  60da              STR      r2,[r3,#0xc]
;;;184    		GPIOD->ODR ^= GPIO_Pin_2;
000272  4a7c              LDR      r2,|L1.1124|
000274  6812              LDR      r2,[r2,#0]
000276  f0820204          EOR      r2,r2,#4
00027a  f8c3240c          STR      r2,[r3,#0x40c]
00027e  f1010101          ADD      r1,r1,#1              ;181
                  |L1.642|
000282  4281              CMP      r1,r0                 ;181
000284  dbef              BLT      |L1.614|
;;;185    	}
;;;186    }
000286  4770              BX       lr
;;;187    
                          ENDP

                  motor_step_move PROC
;;;190    static char step_motor_moving_flag = 0;
;;;191    void motor_step_move(int step_num,char direct)
000288  b570              PUSH     {r4-r6,lr}
;;;192    {
00028a  4604              MOV      r4,r0
00028c  460d              MOV      r5,r1
;;;193    	static int step_state = 0;
;;;194    	unsigned int i =0;
00028e  2600              MOVS     r6,#0
;;;195    	//M_EN1_DISABLE;
;;;196    	//M_EN2_DISABLE;
;;;197    	M_EN1_EN;
000290  f44f5080          MOV      r0,#0x1000
000294  4972              LDR      r1,|L1.1120|
000296  6108              STR      r0,[r1,#0x10]
;;;198    	M_EN2_EN;
000298  2004              MOVS     r0,#4
00029a  4973              LDR      r1,|L1.1128|
00029c  6008              STR      r0,[r1,#0]
;;;199    	while(i<step_num)
00029e  e0bb              B        |L1.1048|
                  |L1.672|
;;;200    	{
;;;201    		step_motor_moving_flag = 1;
0002a0  2001              MOVS     r0,#1
0002a2  4972              LDR      r1,|L1.1132|
0002a4  7008              STRB     r0,[r1,#0]
;;;202    		switch(step_state)
0002a6  f1010024          ADD      r0,r1,#0x24
0002aa  6800              LDR      r0,[r0,#0]  ; step_state
0002ac  2808              CMP      r0,#8
0002ae  d27e              BCS      |L1.942|
0002b0  e8dff000          TBB      [pc,r0]
0002b4  04132231          DCB      0x04,0x13,0x22,0x31
0002b8  404f5e6d          DCB      0x40,0x4f,0x5e,0x6d
;;;203    		{
;;;204    				case 0:
;;;205    								M_IN1_LOW;
0002bc  f44f6080          MOV      r0,#0x400
0002c0  4967              LDR      r1,|L1.1120|
0002c2  6148              STR      r0,[r1,#0x14]
;;;206    								M_IN2_HIGH;
0002c4  0040              LSLS     r0,r0,#1
0002c6  6108              STR      r0,[r1,#0x10]
;;;207    								M_IN3_HIGH;
0002c8  2001              MOVS     r0,#1
0002ca  4969              LDR      r1,|L1.1136|
0002cc  6008              STR      r0,[r1,#0]
;;;208    								M_IN4_HIGH;
0002ce  f04f0010          MOV      r0,#0x10
0002d2  4959              LDR      r1,|L1.1080|
0002d4  f8c10810          STR      r0,[r1,#0x810]
;;;209    								break;
0002d8  e078              B        |L1.972|
;;;210    				case 1:
;;;211    								M_IN1_LOW;
0002da  f44f6080          MOV      r0,#0x400
0002de  4960              LDR      r1,|L1.1120|
0002e0  6148              STR      r0,[r1,#0x14]
;;;212    								M_IN2_LOW;
0002e2  0040              LSLS     r0,r0,#1
0002e4  6148              STR      r0,[r1,#0x14]
;;;213    								M_IN3_HIGH;
0002e6  2001              MOVS     r0,#1
0002e8  4961              LDR      r1,|L1.1136|
0002ea  6008              STR      r0,[r1,#0]
;;;214    								M_IN4_HIGH;
0002ec  f04f0010          MOV      r0,#0x10
0002f0  4951              LDR      r1,|L1.1080|
0002f2  f8c10810          STR      r0,[r1,#0x810]
;;;215    								break;
0002f6  e069              B        |L1.972|
;;;216    				case 2:
;;;217    								M_IN1_HIGH;
0002f8  f44f6080          MOV      r0,#0x400
0002fc  4958              LDR      r1,|L1.1120|
0002fe  6108              STR      r0,[r1,#0x10]
;;;218    								M_IN2_LOW;
000300  0040              LSLS     r0,r0,#1
000302  6148              STR      r0,[r1,#0x14]
;;;219    								M_IN3_HIGH;
000304  2001              MOVS     r0,#1
000306  495a              LDR      r1,|L1.1136|
000308  6008              STR      r0,[r1,#0]
;;;220    								M_IN4_HIGH;
00030a  f04f0010          MOV      r0,#0x10
00030e  494a              LDR      r1,|L1.1080|
000310  f8c10810          STR      r0,[r1,#0x810]
;;;221    								break;
000314  e05a              B        |L1.972|
;;;222    				case 3:
;;;223    								M_IN1_HIGH;
000316  f44f6080          MOV      r0,#0x400
00031a  4951              LDR      r1,|L1.1120|
00031c  6108              STR      r0,[r1,#0x10]
;;;224    								M_IN2_LOW;
00031e  0040              LSLS     r0,r0,#1
000320  6148              STR      r0,[r1,#0x14]
;;;225    								M_IN3_LOW;
000322  2001              MOVS     r0,#1
000324  4953              LDR      r1,|L1.1140|
000326  6008              STR      r0,[r1,#0]
;;;226    								M_IN4_HIGH;
000328  f04f0010          MOV      r0,#0x10
00032c  4942              LDR      r1,|L1.1080|
00032e  f8c10810          STR      r0,[r1,#0x810]
;;;227    								break;
000332  e04b              B        |L1.972|
;;;228    				case 4:
;;;229    								M_IN1_HIGH;
000334  f44f6080          MOV      r0,#0x400
000338  4949              LDR      r1,|L1.1120|
00033a  6108              STR      r0,[r1,#0x10]
;;;230    								M_IN2_HIGH;
00033c  0040              LSLS     r0,r0,#1
00033e  6108              STR      r0,[r1,#0x10]
;;;231    								M_IN3_LOW;
000340  2001              MOVS     r0,#1
000342  494c              LDR      r1,|L1.1140|
000344  6008              STR      r0,[r1,#0]
;;;232    								M_IN4_HIGH;
000346  f04f0010          MOV      r0,#0x10
00034a  493b              LDR      r1,|L1.1080|
00034c  f8c10810          STR      r0,[r1,#0x810]
;;;233    								break;
000350  e03c              B        |L1.972|
;;;234    				case 5:
;;;235    								M_IN1_HIGH;
000352  f44f6080          MOV      r0,#0x400
000356  4942              LDR      r1,|L1.1120|
000358  6108              STR      r0,[r1,#0x10]
;;;236    								M_IN2_HIGH;
00035a  0040              LSLS     r0,r0,#1
00035c  6108              STR      r0,[r1,#0x10]
;;;237    								M_IN3_LOW;
00035e  2001              MOVS     r0,#1
000360  4944              LDR      r1,|L1.1140|
000362  6008              STR      r0,[r1,#0]
;;;238    								M_IN4_LOW;
000364  f04f0010          MOV      r0,#0x10
000368  4933              LDR      r1,|L1.1080|
00036a  f8c10814          STR      r0,[r1,#0x814]
;;;239    								break;
00036e  e02d              B        |L1.972|
;;;240    				case 6:
;;;241    								M_IN1_HIGH;
000370  f44f6080          MOV      r0,#0x400
000374  493a              LDR      r1,|L1.1120|
000376  6108              STR      r0,[r1,#0x10]
;;;242    								M_IN2_HIGH;
000378  0040              LSLS     r0,r0,#1
00037a  6108              STR      r0,[r1,#0x10]
;;;243    								M_IN3_HIGH;
00037c  2001              MOVS     r0,#1
00037e  493c              LDR      r1,|L1.1136|
000380  6008              STR      r0,[r1,#0]
;;;244    								M_IN4_LOW;
000382  f04f0010          MOV      r0,#0x10
000386  492c              LDR      r1,|L1.1080|
000388  f8c10814          STR      r0,[r1,#0x814]
;;;245    								break;
00038c  e01e              B        |L1.972|
;;;246    				case 7:
;;;247    								M_IN1_LOW;
00038e  f44f6080          MOV      r0,#0x400
000392  4933              LDR      r1,|L1.1120|
000394  6148              STR      r0,[r1,#0x14]
;;;248    								M_IN2_HIGH;
000396  0040              LSLS     r0,r0,#1
000398  6108              STR      r0,[r1,#0x10]
;;;249    								M_IN3_HIGH;
00039a  2001              MOVS     r0,#1
00039c  4934              LDR      r1,|L1.1136|
00039e  6008              STR      r0,[r1,#0]
;;;250    								M_IN4_LOW;
0003a0  f04f0010          MOV      r0,#0x10
0003a4  4924              LDR      r1,|L1.1080|
0003a6  f8c10814          STR      r0,[r1,#0x814]
;;;251    								break;
0003aa  e00f              B        |L1.972|
0003ac  e7ff              B        |L1.942|
                  |L1.942|
;;;252    				default:
;;;253    					      M_IN1_LOW;
0003ae  f44f6080          MOV      r0,#0x400
0003b2  492b              LDR      r1,|L1.1120|
0003b4  6148              STR      r0,[r1,#0x14]
;;;254    								M_IN2_LOW;
0003b6  0040              LSLS     r0,r0,#1
0003b8  6148              STR      r0,[r1,#0x14]
;;;255    								M_IN3_LOW;
0003ba  2001              MOVS     r0,#1
0003bc  492d              LDR      r1,|L1.1140|
0003be  6008              STR      r0,[r1,#0]
;;;256    								M_IN4_LOW;
0003c0  f04f0010          MOV      r0,#0x10
0003c4  491c              LDR      r1,|L1.1080|
0003c6  f8c10814          STR      r0,[r1,#0x814]
;;;257    				        break;
0003ca  bf00              NOP      
                  |L1.972|
0003cc  bf00              NOP                            ;209
;;;258    		}
;;;259    		if(direct==0)
0003ce  b96d              CBNZ     r5,|L1.1004|
;;;260    		{
;;;261    			step_state ++;
0003d0  4826              LDR      r0,|L1.1132|
0003d2  3024              ADDS     r0,r0,#0x24
0003d4  6800              LDR      r0,[r0,#0]  ; step_state
0003d6  1c40              ADDS     r0,r0,#1
0003d8  4924              LDR      r1,|L1.1132|
0003da  3124              ADDS     r1,r1,#0x24
0003dc  6008              STR      r0,[r1,#0]  ; step_state
;;;262    			if(step_state>=8)
0003de  4608              MOV      r0,r1
0003e0  6800              LDR      r0,[r0,#0]  ; step_state
0003e2  2808              CMP      r0,#8
0003e4  db13              BLT      |L1.1038|
;;;263    			{
;;;264    				step_state = 0;
0003e6  2000              MOVS     r0,#0
0003e8  6008              STR      r0,[r1,#0]  ; step_state
0003ea  e010              B        |L1.1038|
                  |L1.1004|
;;;265          }
;;;266        }
;;;267    		else
;;;268    		{
;;;269    			if(step_state>0)
0003ec  481f              LDR      r0,|L1.1132|
0003ee  3024              ADDS     r0,r0,#0x24
0003f0  6800              LDR      r0,[r0,#0]  ; step_state
0003f2  2800              CMP      r0,#0
0003f4  dd07              BLE      |L1.1030|
;;;270    			{
;;;271    			  step_state--;
0003f6  481d              LDR      r0,|L1.1132|
0003f8  3024              ADDS     r0,r0,#0x24
0003fa  6800              LDR      r0,[r0,#0]  ; step_state
0003fc  1e40              SUBS     r0,r0,#1
0003fe  491b              LDR      r1,|L1.1132|
000400  3124              ADDS     r1,r1,#0x24
000402  6008              STR      r0,[r1,#0]  ; step_state
000404  e003              B        |L1.1038|
                  |L1.1030|
;;;272    			}
;;;273    			else
;;;274    			{
;;;275    				step_state = 7;
000406  2007              MOVS     r0,#7
000408  4918              LDR      r1,|L1.1132|
00040a  3124              ADDS     r1,r1,#0x24
00040c  6008              STR      r0,[r1,#0]  ; step_state
                  |L1.1038|
;;;276          }
;;;277    			
;;;278        }
;;;279    		i++;
00040e  1c76              ADDS     r6,r6,#1
;;;280    		//delay_us_motor(50);
;;;281    		delay_us(5000);
000410  f2413088          MOV      r0,#0x1388
000414  f7fffffe          BL       delay_us
                  |L1.1048|
000418  42a6              CMP      r6,r4                 ;199
00041a  f4ffaf41          BCC      |L1.672|
;;;282    	}
;;;283    	step_motor_moving_flag = 0;
00041e  2000              MOVS     r0,#0
000420  4912              LDR      r1,|L1.1132|
000422  7008              STRB     r0,[r1,#0]
;;;284    	M_EN1_DISABLE;
000424  f44f5080          MOV      r0,#0x1000
000428  490d              LDR      r1,|L1.1120|
00042a  6148              STR      r0,[r1,#0x14]
;;;285    	M_EN2_DISABLE;
00042c  2004              MOVS     r0,#4
00042e  4912              LDR      r1,|L1.1144|
000430  6008              STR      r0,[r1,#0]
;;;286    }
000432  bd70              POP      {r4-r6,pc}
                  |L1.1076|
                          DCD      0x40010c10
                  |L1.1080|
                          DCD      0x40010000
                  |L1.1084|
                          DCD      PM25DMABuffer
                  |L1.1088|
                          DCD      PM2_5_concentration
                  |L1.1092|
                          DCD      PM2_5_value
                  |L1.1096|
                          DCD      display_CO2_conc
                  |L1.1100|
                          DCD      0x00989680
                  |L1.1104|
                          DCD      display_num_PM
                  |L1.1108|
                          DCD      0x000f4240
                  |L1.1112|
                          DCD      0x000186a0
                  |L1.1116|
                          DCD      display_conc_PM
                  |L1.1120|
                          DCD      0x40011000
                  |L1.1124|
                          DCD      0x4001140c
                  |L1.1128|
                          DCD      0x40011410
                  |L1.1132|
                          DCD      ||.data||+0x1c
                  |L1.1136|
                          DCD      0x40010810
                  |L1.1140|
                          DCD      0x40010814
                  |L1.1144|
                          DCD      0x40011414
                          ENDP

                  start_motor PROC
;;;287    
;;;288    void start_motor(void)
00047c  b510              PUSH     {r4,lr}
;;;289    {
;;;290    	 bsp_StartTimer(2,3000);//led start question
00047e  f64031b8          MOV      r1,#0xbb8
000482  2002              MOVS     r0,#2
000484  f7fffffe          BL       bsp_StartTimer
;;;291    	 TIM3->CCR2 = 12;//48;
000488  200c              MOVS     r0,#0xc
00048a  49ff              LDR      r1,|L1.2184|
00048c  8008              STRH     r0,[r1,#0]
;;;292    	 while(bsp_CheckTimer(2)==0);	 
00048e  bf00              NOP      
                  |L1.1168|
000490  2002              MOVS     r0,#2
000492  f7fffffe          BL       bsp_CheckTimer
000496  2800              CMP      r0,#0
000498  d0fa              BEQ      |L1.1168|
;;;293    }
00049a  bd10              POP      {r4,pc}
;;;294    
                          ENDP

                  step_motor_init PROC
;;;295    void step_motor_init(void)
00049c  b510              PUSH     {r4,lr}
;;;296    {
;;;297    	static int step_state_init = 0;
;;;298    	M_EN1_EN;
00049e  f44f5080          MOV      r0,#0x1000
0004a2  49fa              LDR      r1,|L1.2188|
0004a4  6108              STR      r0,[r1,#0x10]
;;;299    	M_EN2_EN;
0004a6  2004              MOVS     r0,#4
0004a8  49f9              LDR      r1,|L1.2192|
0004aa  6008              STR      r0,[r1,#0]
;;;300    	while((GPIOA->IDR & GPIO_Pin_5)!=0)
0004ac  e0a3              B        |L1.1526|
                  |L1.1198|
;;;301    	{
;;;302    		switch(step_state_init)
0004ae  48f9              LDR      r0,|L1.2196|
0004b0  6800              LDR      r0,[r0,#0]  ; step_state_init
0004b2  2808              CMP      r0,#8
0004b4  d27e              BCS      |L1.1460|
0004b6  e8dff000          TBB      [pc,r0]
0004ba  0413              DCB      0x04,0x13
0004bc  2231404f          DCB      0x22,0x31,0x40,0x4f
0004c0  5e6d              DCB      0x5e,0x6d
;;;303    		{
;;;304    				case 0:
;;;305    								M_IN1_LOW;
0004c2  f44f6080          MOV      r0,#0x400
0004c6  49f1              LDR      r1,|L1.2188|
0004c8  6148              STR      r0,[r1,#0x14]
;;;306    								M_IN2_HIGH;
0004ca  0040              LSLS     r0,r0,#1
0004cc  6108              STR      r0,[r1,#0x10]
;;;307    								M_IN3_HIGH;
0004ce  2001              MOVS     r0,#1
0004d0  49f1              LDR      r1,|L1.2200|
0004d2  6008              STR      r0,[r1,#0]
;;;308    								M_IN4_HIGH;
0004d4  f04f0010          MOV      r0,#0x10
0004d8  49f0              LDR      r1,|L1.2204|
0004da  f8c10810          STR      r0,[r1,#0x810]
;;;309    								break;
0004de  e078              B        |L1.1490|
;;;310    				case 1:
;;;311    								M_IN1_LOW;
0004e0  f44f6080          MOV      r0,#0x400
0004e4  49e9              LDR      r1,|L1.2188|
0004e6  6148              STR      r0,[r1,#0x14]
;;;312    								M_IN2_LOW;
0004e8  0040              LSLS     r0,r0,#1
0004ea  6148              STR      r0,[r1,#0x14]
;;;313    								M_IN3_HIGH;
0004ec  2001              MOVS     r0,#1
0004ee  49ea              LDR      r1,|L1.2200|
0004f0  6008              STR      r0,[r1,#0]
;;;314    								M_IN4_HIGH;
0004f2  f04f0010          MOV      r0,#0x10
0004f6  49e9              LDR      r1,|L1.2204|
0004f8  f8c10810          STR      r0,[r1,#0x810]
;;;315    								break;
0004fc  e069              B        |L1.1490|
;;;316    				case 2:
;;;317    								M_IN1_HIGH;
0004fe  f44f6080          MOV      r0,#0x400
000502  49e2              LDR      r1,|L1.2188|
000504  6108              STR      r0,[r1,#0x10]
;;;318    								M_IN2_LOW;
000506  0040              LSLS     r0,r0,#1
000508  6148              STR      r0,[r1,#0x14]
;;;319    								M_IN3_HIGH;
00050a  2001              MOVS     r0,#1
00050c  49e2              LDR      r1,|L1.2200|
00050e  6008              STR      r0,[r1,#0]
;;;320    								M_IN4_HIGH;
000510  f04f0010          MOV      r0,#0x10
000514  49e1              LDR      r1,|L1.2204|
000516  f8c10810          STR      r0,[r1,#0x810]
;;;321    								break;
00051a  e05a              B        |L1.1490|
;;;322    				case 3:
;;;323    								M_IN1_HIGH;
00051c  f44f6080          MOV      r0,#0x400
000520  49da              LDR      r1,|L1.2188|
000522  6108              STR      r0,[r1,#0x10]
;;;324    								M_IN2_LOW;
000524  0040              LSLS     r0,r0,#1
000526  6148              STR      r0,[r1,#0x14]
;;;325    								M_IN3_LOW;
000528  2001              MOVS     r0,#1
00052a  49dd              LDR      r1,|L1.2208|
00052c  6008              STR      r0,[r1,#0]
;;;326    								M_IN4_HIGH;
00052e  f04f0010          MOV      r0,#0x10
000532  49da              LDR      r1,|L1.2204|
000534  f8c10810          STR      r0,[r1,#0x810]
;;;327    								break;
000538  e04b              B        |L1.1490|
;;;328    				case 4:
;;;329    								M_IN1_HIGH;
00053a  f44f6080          MOV      r0,#0x400
00053e  49d3              LDR      r1,|L1.2188|
000540  6108              STR      r0,[r1,#0x10]
;;;330    								M_IN2_HIGH;
000542  0040              LSLS     r0,r0,#1
000544  6108              STR      r0,[r1,#0x10]
;;;331    								M_IN3_LOW;
000546  2001              MOVS     r0,#1
000548  49d5              LDR      r1,|L1.2208|
00054a  6008              STR      r0,[r1,#0]
;;;332    								M_IN4_HIGH;
00054c  f04f0010          MOV      r0,#0x10
000550  49d2              LDR      r1,|L1.2204|
000552  f8c10810          STR      r0,[r1,#0x810]
;;;333    								break;
000556  e03c              B        |L1.1490|
;;;334    				case 5:
;;;335    								M_IN1_HIGH;
000558  f44f6080          MOV      r0,#0x400
00055c  49cb              LDR      r1,|L1.2188|
00055e  6108              STR      r0,[r1,#0x10]
;;;336    								M_IN2_HIGH;
000560  0040              LSLS     r0,r0,#1
000562  6108              STR      r0,[r1,#0x10]
;;;337    								M_IN3_LOW;
000564  2001              MOVS     r0,#1
000566  49ce              LDR      r1,|L1.2208|
000568  6008              STR      r0,[r1,#0]
;;;338    								M_IN4_LOW;
00056a  f04f0010          MOV      r0,#0x10
00056e  49cb              LDR      r1,|L1.2204|
000570  f8c10814          STR      r0,[r1,#0x814]
;;;339    								break;
000574  e02d              B        |L1.1490|
;;;340    				case 6:
;;;341    								M_IN1_HIGH;
000576  f44f6080          MOV      r0,#0x400
00057a  49c4              LDR      r1,|L1.2188|
00057c  6108              STR      r0,[r1,#0x10]
;;;342    								M_IN2_HIGH;
00057e  0040              LSLS     r0,r0,#1
000580  6108              STR      r0,[r1,#0x10]
;;;343    								M_IN3_HIGH;
000582  2001              MOVS     r0,#1
000584  49c4              LDR      r1,|L1.2200|
000586  6008              STR      r0,[r1,#0]
;;;344    								M_IN4_LOW;
000588  f04f0010          MOV      r0,#0x10
00058c  49c3              LDR      r1,|L1.2204|
00058e  f8c10814          STR      r0,[r1,#0x814]
;;;345    								break;
000592  e01e              B        |L1.1490|
;;;346    				case 7:
;;;347    								M_IN1_LOW;
000594  f44f6080          MOV      r0,#0x400
000598  49bc              LDR      r1,|L1.2188|
00059a  6148              STR      r0,[r1,#0x14]
;;;348    								M_IN2_HIGH;
00059c  0040              LSLS     r0,r0,#1
00059e  6108              STR      r0,[r1,#0x10]
;;;349    								M_IN3_HIGH;
0005a0  2001              MOVS     r0,#1
0005a2  49bd              LDR      r1,|L1.2200|
0005a4  6008              STR      r0,[r1,#0]
;;;350    								M_IN4_LOW;
0005a6  f04f0010          MOV      r0,#0x10
0005aa  49bc              LDR      r1,|L1.2204|
0005ac  f8c10814          STR      r0,[r1,#0x814]
;;;351    								break;
0005b0  e00f              B        |L1.1490|
0005b2  e7ff              B        |L1.1460|
                  |L1.1460|
;;;352    				default:
;;;353    					      M_IN1_LOW;
0005b4  f44f6080          MOV      r0,#0x400
0005b8  49b4              LDR      r1,|L1.2188|
0005ba  6148              STR      r0,[r1,#0x14]
;;;354    								M_IN2_LOW;
0005bc  0040              LSLS     r0,r0,#1
0005be  6148              STR      r0,[r1,#0x14]
;;;355    								M_IN3_LOW;
0005c0  2001              MOVS     r0,#1
0005c2  49b7              LDR      r1,|L1.2208|
0005c4  6008              STR      r0,[r1,#0]
;;;356    								M_IN4_LOW;
0005c6  f04f0010          MOV      r0,#0x10
0005ca  49b4              LDR      r1,|L1.2204|
0005cc  f8c10814          STR      r0,[r1,#0x814]
;;;357    				        break;
0005d0  bf00              NOP      
                  |L1.1490|
0005d2  bf00              NOP                            ;309
;;;358    		}
;;;359    		if(step_state_init>0)
0005d4  48af              LDR      r0,|L1.2196|
0005d6  6800              LDR      r0,[r0,#0]  ; step_state_init
0005d8  2800              CMP      r0,#0
0005da  dd05              BLE      |L1.1512|
;;;360    		{
;;;361    			step_state_init--;
0005dc  48ad              LDR      r0,|L1.2196|
0005de  6800              LDR      r0,[r0,#0]  ; step_state_init
0005e0  1e40              SUBS     r0,r0,#1
0005e2  49ac              LDR      r1,|L1.2196|
0005e4  6008              STR      r0,[r1,#0]  ; step_state_init
0005e6  e002              B        |L1.1518|
                  |L1.1512|
;;;362    		}
;;;363    		else
;;;364    		{
;;;365    			step_state_init = 7;
0005e8  2007              MOVS     r0,#7
0005ea  49aa              LDR      r1,|L1.2196|
0005ec  6008              STR      r0,[r1,#0]  ; step_state_init
                  |L1.1518|
;;;366    		}
;;;367    		delay_us(5000);
0005ee  f2413088          MOV      r0,#0x1388
0005f2  f7fffffe          BL       delay_us
                  |L1.1526|
0005f6  48ab              LDR      r0,|L1.2212|
0005f8  6800              LDR      r0,[r0,#0]            ;300
0005fa  f0100f20          TST      r0,#0x20              ;300
0005fe  f47faf56          BNE      |L1.1198|
;;;368    	}
;;;369    	step_motor_position = 0;
000602  2000              MOVS     r0,#0
000604  49a3              LDR      r1,|L1.2196|
000606  3929              SUBS     r1,r1,#0x29
000608  7008              STRB     r0,[r1,#0]
;;;370    	M_EN1_DISABLE;
00060a  f44f5080          MOV      r0,#0x1000
00060e  499f              LDR      r1,|L1.2188|
000610  6148              STR      r0,[r1,#0x14]
;;;371    	M_EN2_DISABLE;
000612  2004              MOVS     r0,#4
000614  49a4              LDR      r1,|L1.2216|
000616  6008              STR      r0,[r1,#0]
;;;372    }
000618  bd10              POP      {r4,pc}
;;;373    void step_motor_out(void)
                          ENDP

                  step_motor_out PROC
00061a  b510              PUSH     {r4,lr}
;;;374    {
;;;375    	
;;;376    	switch(step_motor_position)
00061c  489d              LDR      r0,|L1.2196|
00061e  3829              SUBS     r0,r0,#0x29
000620  7800              LDRB     r0,[r0,#0]  ; step_motor_position
000622  b130              CBZ      r0,|L1.1586|
000624  2801              CMP      r0,#1
000626  d00a              BEQ      |L1.1598|
000628  2802              CMP      r0,#2
00062a  d00e              BEQ      |L1.1610|
00062c  2803              CMP      r0,#3
00062e  d10e              BNE      |L1.1614|
000630  e00c              B        |L1.1612|
                  |L1.1586|
;;;377    	{
;;;378    			case 0:
;;;379    				     motor_step_move(1700,0);
000632  2100              MOVS     r1,#0
000634  f24060a4          MOV      r0,#0x6a4
000638  f7fffffe          BL       motor_step_move
;;;380    						 break;
00063c  e008              B        |L1.1616|
                  |L1.1598|
;;;381    			case 1:
;;;382    				     motor_step_move(1400,0);
00063e  2100              MOVS     r1,#0
000640  f44f60af          MOV      r0,#0x578
000644  f7fffffe          BL       motor_step_move
;;;383    						 break;
000648  e002              B        |L1.1616|
                  |L1.1610|
;;;384    			case 2:
;;;385    				     
;;;386    						 break;
00064a  e001              B        |L1.1616|
                  |L1.1612|
;;;387    			case 3:
;;;388    				     
;;;389    						 break;
00064c  e000              B        |L1.1616|
                  |L1.1614|
;;;390    			default:
;;;391    						 break;
00064e  bf00              NOP      
                  |L1.1616|
000650  bf00              NOP                            ;380
;;;392      }
;;;393    	step_motor_position = 2;
000652  2002              MOVS     r0,#2
000654  498f              LDR      r1,|L1.2196|
000656  3929              SUBS     r1,r1,#0x29
000658  7008              STRB     r0,[r1,#0]
;;;394    }
00065a  bd10              POP      {r4,pc}
;;;395    void step_motor_in(void)
                          ENDP

                  step_motor_in PROC
00065c  b510              PUSH     {r4,lr}
;;;396    {
;;;397    	switch(step_motor_position)
00065e  488d              LDR      r0,|L1.2196|
000660  3829              SUBS     r0,r0,#0x29
000662  7800              LDRB     r0,[r0,#0]  ; step_motor_position
000664  b130              CBZ      r0,|L1.1652|
000666  2801              CMP      r0,#1
000668  d00a              BEQ      |L1.1664|
00066a  2802              CMP      r0,#2
00066c  d009              BEQ      |L1.1666|
00066e  2803              CMP      r0,#3
000670  d10e              BNE      |L1.1680|
000672  e00c              B        |L1.1678|
                  |L1.1652|
;;;398    	{
;;;399    			case 0:
;;;400    				     motor_step_move(300,0);
000674  2100              MOVS     r1,#0
000676  f44f7096          MOV      r0,#0x12c
00067a  f7fffffe          BL       motor_step_move
;;;401    						 break;
00067e  e008              B        |L1.1682|
                  |L1.1664|
;;;402    			case 1:
;;;403    				     
;;;404    						 break;
000680  e007              B        |L1.1682|
                  |L1.1666|
;;;405    			case 2:
;;;406    				     motor_step_move(1400,1);
000682  2101              MOVS     r1,#1
000684  f44f60af          MOV      r0,#0x578
000688  f7fffffe          BL       motor_step_move
;;;407    						 break;
00068c  e001              B        |L1.1682|
                  |L1.1678|
;;;408    			case 3:
;;;409    						 break;
00068e  e000              B        |L1.1682|
                  |L1.1680|
;;;410    			default:
;;;411    						 break;			
000690  bf00              NOP      
                  |L1.1682|
000692  bf00              NOP                            ;401
;;;412      }
;;;413    	step_motor_position = 1;
000694  2001              MOVS     r0,#1
000696  497f              LDR      r1,|L1.2196|
000698  3929              SUBS     r1,r1,#0x29
00069a  7008              STRB     r0,[r1,#0]
;;;414    }
00069c  bd10              POP      {r4,pc}
;;;415    // void step_motor_out(void)
                          ENDP

                  get_co2_value PROC
;;;475    // }
;;;476    void get_co2_value(void)
00069e  2000              MOVS     r0,#0
;;;477    {
;;;478    	char i;
;;;479    	for(i=0;i<9;i++)
0006a0  e00c              B        |L1.1724|
                  |L1.1698|
;;;480    	{ 
;;;481    		while((USART1->SR&0X40)==0);
0006a2  bf00              NOP      
                  |L1.1700|
0006a4  4981              LDR      r1,|L1.2220|
0006a6  8809              LDRH     r1,[r1,#0]
0006a8  f0110f40          TST      r1,#0x40
0006ac  d0fa              BEQ      |L1.1700|
;;;482    		USART1->DR = get_CO2_CMD[i];
0006ae  4980              LDR      r1,|L1.2224|
0006b0  5c09              LDRB     r1,[r1,r0]
0006b2  4a80              LDR      r2,|L1.2228|
0006b4  8011              STRH     r1,[r2,#0]
0006b6  f1000101          ADD      r1,r0,#1              ;479
0006ba  b2c8              UXTB     r0,r1                 ;479
                  |L1.1724|
0006bc  2809              CMP      r0,#9                 ;479
0006be  dbf0              BLT      |L1.1698|
;;;483      }
;;;484    }
0006c0  4770              BX       lr
;;;485    
                          ENDP

                  power_off PROC
;;;492      static char start_delay_30_flag = 0;
;;;493    void power_off(void)
0006c2  b510              PUSH     {r4,lr}
;;;494    {
;;;495    	bsp_LedOff(1);
0006c4  2001              MOVS     r0,#1
0006c6  f7fffffe          BL       bsp_LedOff
;;;496    	bsp_LedOff(2);
0006ca  2002              MOVS     r0,#2
0006cc  f7fffffe          BL       bsp_LedOff
;;;497    	bsp_LedOff(3);
0006d0  2003              MOVS     r0,#3
0006d2  f7fffffe          BL       bsp_LedOff
;;;498    	bsp_LedOff(4);
0006d6  2004              MOVS     r0,#4
0006d8  f7fffffe          BL       bsp_LedOff
;;;499    	bsp_LedOff(5);
0006dc  2005              MOVS     r0,#5
0006de  f7fffffe          BL       bsp_LedOff
;;;500    	bsp_LedOff(6);
0006e2  2006              MOVS     r0,#6
0006e4  f7fffffe          BL       bsp_LedOff
;;;501    	bsp_LedOff(7);
0006e8  2007              MOVS     r0,#7
0006ea  f7fffffe          BL       bsp_LedOff
;;;502    	bsp_LedOff(8);
0006ee  2008              MOVS     r0,#8
0006f0  f7fffffe          BL       bsp_LedOff
;;;503    	
;;;504    	flag_CO_PW = 0;
0006f4  2000              MOVS     r0,#0
0006f6  4970              LDR      r1,|L1.2232|
0006f8  7008              STRB     r0,[r1,#0]
;;;505    	flag_PM_PW = 0;
0006fa  4970              LDR      r1,|L1.2236|
0006fc  7008              STRB     r0,[r1,#0]
;;;506    	CO2_PW_DISABLE;
0006fe  f44f4000          MOV      r0,#0x8000
000702  4967              LDR      r1,|L1.2208|
000704  6008              STR      r0,[r1,#0]
;;;507    	TIM3->CCR2 = 0;
000706  f04f0000          MOV      r0,#0
00070a  f04f4180          MOV      r1,#0x40000000
00070e  f8a10438          STRH     r0,[r1,#0x438]
;;;508    	DC_MOTOR_DISABLE;
000712  f44f4080          MOV      r0,#0x4000
000716  496a              LDR      r1,|L1.2240|
000718  8008              STRH     r0,[r1,#0]
00071a  f04f0100          MOV      r1,#0
00071e  4869              LDR      r0,|L1.2244|
000720  f7fffffe          BL       TIM_Cmd
;;;509    //	clear_screen();
;;;510    	Clear_LCD();
000724  f7fffffe          BL       Clear_LCD
;;;511    	clear_PM_rec();
000728  f7fffffe          BL       clear_PM_rec
;;;512    	flag_getCO2_value = 0;
00072c  2000              MOVS     r0,#0
00072e  4966              LDR      r1,|L1.2248|
000730  7008              STRB     r0,[r1,#0]
;;;513    	flag_getPM_value = 0;
000732  4966              LDR      r1,|L1.2252|
000734  7008              STRB     r0,[r1,#0]
;;;514    
;;;515    	timing_count = 0;
000736  4957              LDR      r1,|L1.2196|
000738  3924              SUBS     r1,r1,#0x24
00073a  6008              STR      r0,[r1,#0]  ; timing_count
;;;516    	timing_flag = 0;
00073c  1d09              ADDS     r1,r1,#4
00073e  7008              STRB     r0,[r1,#0]
;;;517    	timing_time_min_value = 0;
000740  1d09              ADDS     r1,r1,#4
000742  6008              STR      r0,[r1,#0]  ; timing_time_min_value
;;;518    	bsp_StopTimer(0);
000744  f7fffffe          BL       bsp_StopTimer
;;;519    	bsp_StopTimer(1);
000748  2001              MOVS     r0,#1
00074a  f7fffffe          BL       bsp_StopTimer
;;;520    	
;;;521    	work_0_1_mode_state = 0;
00074e  2000              MOVS     r0,#0
000750  4950              LDR      r1,|L1.2196|
000752  3917              SUBS     r1,r1,#0x17
000754  7008              STRB     r0,[r1,#0]
;;;522    	mode_time_switch_flag = 0;
000756  1e49              SUBS     r1,r1,#1
000758  7008              STRB     r0,[r1,#0]
;;;523    	mode_time_count =0;	
00075a  310c              ADDS     r1,r1,#0xc
00075c  6008              STR      r0,[r1,#0]  ; mode_time_count
;;;524    	work_mode = 0;
00075e  390a              SUBS     r1,r1,#0xa
000760  7008              STRB     r0,[r1,#0]
;;;525    	all_power_state = 0;
000762  1c89              ADDS     r1,r1,#2
000764  7008              STRB     r0,[r1,#0]
;;;526    	//display_chang_face_flag = 0;
;;;527    	co2_pollute_flag = 0;
000766  1c89              ADDS     r1,r1,#2
000768  7008              STRB     r0,[r1,#0]
;;;528    	PM2_5_pollute_flag = 0 ;
00076a  1c49              ADDS     r1,r1,#1
00076c  7008              STRB     r0,[r1,#0]
;;;529    	power_on_init_time_flag = 0;
00076e  1c49              ADDS     r1,r1,#1
000770  7008              STRB     r0,[r1,#0]
;;;530    	
;;;531    	ANION_DISABLE;
000772  f44f7080          MOV      r0,#0x100
000776  4945              LDR      r1,|L1.2188|
000778  6148              STR      r0,[r1,#0x14]
;;;532    	anion_PW_state = 0;
00077a  2000              MOVS     r0,#0
00077c  4945              LDR      r1,|L1.2196|
00077e  391f              SUBS     r1,r1,#0x1f
000780  7008              STRB     r0,[r1,#0]
;;;533    	pollute_flag_last = 0;
000782  3110              ADDS     r1,r1,#0x10
000784  7008              STRB     r0,[r1,#0]
;;;534    	LCD_buffer[7] &= 0x07;//display_graphic_tree_clear();
000786  4852              LDR      r0,|L1.2256|
000788  79c0              LDRB     r0,[r0,#7]  ; LCD_buffer
00078a  f0000007          AND      r0,r0,#7
00078e  4950              LDR      r1,|L1.2256|
000790  71c8              STRB     r0,[r1,#7]
;;;535    	start_delay_30_flag = 0;
000792  2000              MOVS     r0,#0
000794  493f              LDR      r1,|L1.2196|
000796  3908              SUBS     r1,r1,#8
000798  7008              STRB     r0,[r1,#0]
;;;536    	last_recycle_shut_flag = 0;
00079a  391f              SUBS     r1,r1,#0x1f
00079c  7008              STRB     r0,[r1,#0]
;;;537    }
00079e  bd10              POP      {r4,pc}
;;;538    
                          ENDP

                  main PROC
;;;542    
;;;543    int main(void)
0007a0  b530              PUSH     {r4,r5,lr}
;;;544    {
0007a2  b085              SUB      sp,sp,#0x14
;;;545    	
;;;546      static char dc_motor_speed_count = 0,air_dir_recycle_count=0,timing_state = 0;
;;;547    	static char last_dc_motor_speed_count = 0;
;;;548    	static char led_off_flag = 0;
;;;549    	RCC_ClocksTypeDef check_clock;
;;;550      uint8_t ucKeyCode;
;;;551    	char co2_crc_value = 0;
0007a4  bf00              NOP      
;;;552    	char co2_decode_count;
;;;553      sys();
0007a6  f7fffffe          BL       ||sys||
;;;554    	bsp_Init();
0007aa  f7fffffe          BL       bsp_Init
;;;555    
;;;556    	bsp_InitIRD();		/* 配置GPIO  */
0007ae  f7fffffe          BL       bsp_InitIRD
;;;557      GPIO_Configuration();
0007b2  f7fffffe          BL       GPIO_Configuration
;;;558    	
;;;559    	CO2_CALIB_DISABLE;
0007b6  f44f4080          MOV      r0,#0x4000
0007ba  4946              LDR      r1,|L1.2260|
0007bc  6008              STR      r0,[r1,#0]
;;;560      ANION_DISABLE;
0007be  f44f7080          MOV      r0,#0x100
0007c2  4932              LDR      r1,|L1.2188|
0007c4  6148              STR      r0,[r1,#0x14]
;;;561    	LCD_buffer[7] &= 0x07;//display_graphic_tree_clear();
0007c6  4842              LDR      r0,|L1.2256|
0007c8  79c0              LDRB     r0,[r0,#7]  ; LCD_buffer
0007ca  f0000007          AND      r0,r0,#7
0007ce  4940              LDR      r1,|L1.2256|
0007d0  71c8              STRB     r0,[r1,#7]
;;;562    	
;;;563    	PM_RST_DISABLE;
0007d2  f04f0040          MOV      r0,#0x40
0007d6  4931              LDR      r1,|L1.2204|
0007d8  f8c10810          STR      r0,[r1,#0x810]
;;;564    	PM_PW_DISABLE;
0007dc  f44f5080          MOV      r0,#0x1000
0007e0  492f              LDR      r1,|L1.2208|
0007e2  6008              STR      r0,[r1,#0]
;;;565    	CO2_PW_DISABLE;
0007e4  f44f4000          MOV      r0,#0x8000
0007e8  492c              LDR      r1,|L1.2204|
0007ea  f8c10814          STR      r0,[r1,#0x814]
;;;566    	DMA_ITConfig(DMA1_Channel6, DMA_IT_TC, DISABLE); 
0007ee  f04f0200          MOV      r2,#0
0007f2  f04f0102          MOV      r1,#2
0007f6  4838              LDR      r0,|L1.2264|
0007f8  f7fffffe          BL       DMA_ITConfig
;;;567    	//PM_PW_EN;
;;;568      TIM2_Configuration();
0007fc  f7fffffe          BL       TIM2_Configuration
;;;569    	USART_InitFun();
000800  f7fffffe          BL       USART_InitFun
;;;570    	NVIC_Configuration();
000804  f7fffffe          BL       NVIC_Configuration
;;;571    	IRD_StartWork();
000808  f7fffffe          BL       IRD_StartWork
;;;572    	RCC_GetClocksFreq(&check_clock);
00080c  4668              MOV      r0,sp
00080e  f7fffffe          BL       RCC_GetClocksFreq
;;;573    	bsp_InitLed();
000812  f7fffffe          BL       bsp_InitLed
;;;574    	//iic_init();
;;;575    
;;;576    	TIM3_Configuration();
000816  f7fffffe          BL       TIM3_Configuration
;;;577    	DC_MOTOR_DISABLE;
00081a  f44f4080          MOV      r0,#0x4000
00081e  4928              LDR      r1,|L1.2240|
000820  8008              STRH     r0,[r1,#0]
000822  f04f0100          MOV      r1,#0
000826  4827              LDR      r0,|L1.2244|
000828  f7fffffe          BL       TIM_Cmd
;;;578    //	motor_step_move(20000,0);
;;;579      Ht1621_Init();
00082c  f7fffffe          BL       Ht1621_Init
;;;580      M_EN1_DISABLE;
000830  f44f5080          MOV      r0,#0x1000
000834  4915              LDR      r1,|L1.2188|
000836  6148              STR      r0,[r1,#0x14]
;;;581    	M_EN2_DISABLE;
000838  2004              MOVS     r0,#4
00083a  f8c10414          STR      r0,[r1,#0x414]
;;;582    	clear_PM_rec();
00083e  f7fffffe          BL       clear_PM_rec
;;;583    	//display_graphic_33x64(display_S);
;;;584    	if((GPIOA->IDR & GPIO_Pin_5)!=0)	
000842  4818              LDR      r0,|L1.2212|
000844  6800              LDR      r0,[r0,#0]
000846  f0100f20          TST      r0,#0x20
00084a  d001              BEQ      |L1.2128|
;;;585    	{
;;;586    		step_motor_init();//20161110 need del
00084c  f7fffffe          BL       step_motor_init
                  |L1.2128|
;;;587    	}	
;;;588    	while (1)
000850  f001b98e          B.W      |L1.7024|
                  |L1.2132|
;;;589    	{
;;;590    		bsp_Idle();		/* 空闲时执行的函数,比如喂狗. 在bsp.c中 */
000854  f7fffffe          BL       bsp_Idle
;;;591    		
;;;592    		if(all_power_state==1)
000858  480e              LDR      r0,|L1.2196|
00085a  3814              SUBS     r0,r0,#0x14
00085c  7800              LDRB     r0,[r0,#0]  ; all_power_state
00085e  2801              CMP      r0,#1
000860  d17e              BNE      |L1.2400|
;;;593    		{
;;;594    			
;;;595    							if(bsp_CheckTimer(3)==1)
000862  2003              MOVS     r0,#3
000864  f7fffffe          BL       bsp_CheckTimer
000868  2801              CMP      r0,#1
00086a  d102              BNE      |L1.2162|
;;;596    							{
;;;597    								start_delay_30_flag = 1;
00086c  4909              LDR      r1,|L1.2196|
00086e  3908              SUBS     r1,r1,#8
000870  7008              STRB     r0,[r1,#0]
                  |L1.2162|
;;;598    							}
;;;599    			
;;;600    							if(flag_getCO2_value==1&&shut_off_all_sensor==0&&start_delay_30_flag==1)
000872  4815              LDR      r0,|L1.2248|
000874  7800              LDRB     r0,[r0,#0]  ; flag_getCO2_value
000876  2801              CMP      r0,#1
                  |L1.2168|
000878  d173              BNE      |L1.2402|
00087a  4818              LDR      r0,|L1.2268|
00087c  7800              LDRB     r0,[r0,#0]  ; shut_off_all_sensor
00087e  2800              CMP      r0,#0
000880  d1fa              BNE      |L1.2168|
000882  4804              LDR      r0,|L1.2196|
000884  3808              SUBS     r0,r0,#8
000886  e02b              B        |L1.2272|
                  |L1.2184|
                          DCD      0x40000438
                  |L1.2188|
                          DCD      0x40011000
                  |L1.2192|
                          DCD      0x40011410
                  |L1.2196|
                          DCD      ||.data||+0x44
                  |L1.2200|
                          DCD      0x40010810
                  |L1.2204|
                          DCD      0x40010000
                  |L1.2208|
                          DCD      0x40010814
                  |L1.2212|
                          DCD      0x40010808
                  |L1.2216|
                          DCD      0x40011414
                  |L1.2220|
                          DCD      0x40013800
                  |L1.2224|
                          DCD      get_CO2_CMD
                  |L1.2228|
                          DCD      0x40013804
                  |L1.2232|
                          DCD      flag_CO_PW
                  |L1.2236|
                          DCD      flag_PM_PW
                  |L1.2240|
                          DCD      0x40000418
                  |L1.2244|
                          DCD      0x40000400
                  |L1.2248|
                          DCD      flag_getCO2_value
                  |L1.2252|
                          DCD      flag_getPM_value
                  |L1.2256|
                          DCD      LCD_buffer
                  |L1.2260|
                          DCD      0x40010c10
                  |L1.2264|
                          DCD      0x4002006c
                  |L1.2268|
                          DCD      shut_off_all_sensor
                  |L1.2272|
0008e0  7800              LDRB     r0,[r0,#0]  ; start_delay_30_flag
0008e2  2801              CMP      r0,#1
0008e4  d1c8              BNE      |L1.2168|
;;;601    							{
;;;602                       // co2_crc_value = getCheckSum(&usart_CO2_rec_temp[1]);
;;;603    								    
;;;604    										if(0x86==usart_CO2_rec_temp[1]&&0xFF==usart_CO2_rec_temp[0])
0008e6  48fa              LDR      r0,|L1.3280|
0008e8  7840              LDRB     r0,[r0,#1]  ; usart_CO2_rec_temp
0008ea  2886              CMP      r0,#0x86
0008ec  d164              BNE      |L1.2488|
0008ee  48f8              LDR      r0,|L1.3280|
0008f0  7800              LDRB     r0,[r0,#0]  ; usart_CO2_rec_temp
0008f2  28ff              CMP      r0,#0xff
0008f4  d160              BNE      |L1.2488|
;;;605    										{
;;;606    													Co2_value.Buf8[0] = usart_CO2_rec_temp[3];
0008f6  48f6              LDR      r0,|L1.3280|
0008f8  78c0              LDRB     r0,[r0,#3]  ; usart_CO2_rec_temp
0008fa  49f6              LDR      r1,|L1.3284|
0008fc  7008              STRB     r0,[r1,#0]
;;;607    													Co2_value.Buf8[1] = usart_CO2_rec_temp[2];
0008fe  48f4              LDR      r0,|L1.3280|
000900  7880              LDRB     r0,[r0,#2]  ; usart_CO2_rec_temp
000902  7048              STRB     r0,[r1,#1]
;;;608    
;;;609    													if(Co2_value.Buf16 > HIGH_CO2)
000904  4608              MOV      r0,r1
000906  8800              LDRH     r0,[r0,#0]  ; Co2_value
000908  f64011c4          MOV      r1,#0x9c4
00090c  4288              CMP      r0,r1
00090e  dd14              BLE      |L1.2362|
;;;610    													{
;;;611    														  if(led_off_flag==0)
000910  48f1              LDR      r0,|L1.3288|
000912  7800              LDRB     r0,[r0,#0]  ; led_off_flag
000914  b908              CBNZ     r0,|L1.2330|
;;;612    															{
;;;613    															  co2_Purple_Led();
000916  f7fffffe          BL       co2_Purple_Led
                  |L1.2330|
;;;614    															}
;;;615    														  co2_pollute_flag = 1;
00091a  2001              MOVS     r0,#1
00091c  49ee              LDR      r1,|L1.3288|
00091e  391a              SUBS     r1,r1,#0x1a
000920  7008              STRB     r0,[r1,#0]
;;;616    														  LCD_buffer[7] &= 0x0E;//display_graphic_led_clear();
000922  48ee              LDR      r0,|L1.3292|
000924  79c0              LDRB     r0,[r0,#7]  ; LCD_buffer
000926  f000000e          AND      r0,r0,#0xe
00092a  49ec              LDR      r1,|L1.3292|
00092c  71c8              STRB     r0,[r1,#7]
;;;617    														  LCD_buffer[7] |= 0x02;
00092e  4608              MOV      r0,r1
000930  79c0              LDRB     r0,[r0,#7]  ; LCD_buffer
000932  f0400002          ORR      r0,r0,#2
000936  71c8              STRB     r0,[r1,#7]
000938  e0aa              B        |L1.2704|
                  |L1.2362|
;;;618    													}
;;;619    													else if(Co2_value.Buf16 > MID_CO2)	
00093a  48e6              LDR      r0,|L1.3284|
00093c  8800              LDRH     r0,[r0,#0]  ; Co2_value
00093e  f5b06faf          CMP      r0,#0x578
000942  dd17              BLE      |L1.2420|
;;;620    													{
;;;621    														  if(led_off_flag==0)
000944  48e4              LDR      r0,|L1.3288|
000946  7800              LDRB     r0,[r0,#0]  ; led_off_flag
000948  b908              CBNZ     r0,|L1.2382|
;;;622    															{
;;;623    															   co2_Red_Led();
00094a  f7fffffe          BL       co2_Red_Led
                  |L1.2382|
;;;624    															}
;;;625    														  co2_pollute_flag = 1;
00094e  2001              MOVS     r0,#1
000950  49e1              LDR      r1,|L1.3288|
000952  391a              SUBS     r1,r1,#0x1a
000954  7008              STRB     r0,[r1,#0]
;;;626    														  LCD_buffer[7] &= 0x0E;//display_graphic_led_clear();
000956  48e1              LDR      r0,|L1.3292|
000958  79c0              LDRB     r0,[r0,#7]  ; LCD_buffer
00095a  f000000e          AND      r0,r0,#0xe
00095e  e001              B        |L1.2404|
                  |L1.2400|
000960  e3b1              B        |L1.4294|
                  |L1.2402|
000962  e098              B        |L1.2710|
                  |L1.2404|
000964  49dd              LDR      r1,|L1.3292|
000966  71c8              STRB     r0,[r1,#7]
;;;627    														  LCD_buffer[7] |= 0x02;
000968  4608              MOV      r0,r1
00096a  79c0              LDRB     r0,[r0,#7]  ; LCD_buffer
00096c  f0400002          ORR      r0,r0,#2
000970  71c8              STRB     r0,[r1,#7]
000972  e08d              B        |L1.2704|
                  |L1.2420|
;;;628    													}
;;;629    													else if(Co2_value.Buf16 > MID_LOW_CO2)
000974  48d7              LDR      r0,|L1.3284|
000976  8800              LDRH     r0,[r0,#0]  ; Co2_value
000978  f24021ee          MOV      r1,#0x2ee
00097c  4288              CMP      r0,r1
00097e  dd0b              BLE      |L1.2456|
;;;630    													{
;;;631    														  if(led_off_flag==0)
000980  48d5              LDR      r0,|L1.3288|
000982  7800              LDRB     r0,[r0,#0]  ; led_off_flag
000984  b908              CBNZ     r0,|L1.2442|
;;;632    															{
;;;633    															   co2_Yellow_Led();
000986  f7fffffe          BL       co2_Yellow_Led
                  |L1.2442|
;;;634    															}
;;;635    														  LCD_buffer[7] &= 0x0D;//display_graphic_led_clear();
00098a  48d4              LDR      r0,|L1.3292|
00098c  79c0              LDRB     r0,[r0,#7]  ; LCD_buffer
00098e  f000000d          AND      r0,r0,#0xd
000992  49d2              LDR      r1,|L1.3292|
000994  71c8              STRB     r0,[r1,#7]
000996  e07b              B        |L1.2704|
                  |L1.2456|
;;;636    														 // LCD_buffer[7] |= 0x01;
;;;637    													}
;;;638    													else 
;;;639    													{
;;;640    														  if(led_off_flag==0)
000998  48cf              LDR      r0,|L1.3288|
00099a  7800              LDRB     r0,[r0,#0]  ; led_off_flag
00099c  b908              CBNZ     r0,|L1.2466|
;;;641    															{
;;;642    															   co2_Green_Led();
00099e  f7fffffe          BL       co2_Green_Led
                  |L1.2466|
;;;643    															}
;;;644    														  co2_pollute_flag = 0;
0009a2  2000              MOVS     r0,#0
0009a4  49cc              LDR      r1,|L1.3288|
0009a6  391a              SUBS     r1,r1,#0x1a
0009a8  7008              STRB     r0,[r1,#0]
;;;645    														 
;;;646    														  LCD_buffer[7] &= 0x0D;//display_graphic_led_clear();
0009aa  48cc              LDR      r0,|L1.3292|
0009ac  79c0              LDRB     r0,[r0,#7]  ; LCD_buffer
0009ae  f000000d          AND      r0,r0,#0xd
0009b2  49ca              LDR      r1,|L1.3292|
0009b4  71c8              STRB     r0,[r1,#7]
0009b6  e06b              B        |L1.2704|
                  |L1.2488|
;;;647    														 // LCD_buffer[7] |= 0x01;
;;;648    													}
;;;649    										}
;;;650    										else
;;;651    										{
;;;652    											for(co2_decode_count = 0;co2_decode_count<11;co2_decode_count++)
0009b8  2500              MOVS     r5,#0
0009ba  e006              B        |L1.2506|
                  |L1.2492|
;;;653    											{
;;;654    												if(usart_CO2_rec_temp[co2_decode_count]==0xFF)
0009bc  48c4              LDR      r0,|L1.3280|
0009be  5d40              LDRB     r0,[r0,r5]
0009c0  28ff              CMP      r0,#0xff
0009c2  d100              BNE      |L1.2502|
;;;655    													break;
0009c4  e003              B        |L1.2510|
                  |L1.2502|
0009c6  1c68              ADDS     r0,r5,#1              ;652
0009c8  b2c5              UXTB     r5,r0                 ;652
                  |L1.2506|
0009ca  2d0b              CMP      r5,#0xb               ;652
0009cc  dbf6              BLT      |L1.2492|
                  |L1.2510|
0009ce  bf00              NOP      
;;;656                          }
;;;657    											if(co2_decode_count<11&&usart_CO2_rec_temp[co2_decode_count]==0x86)
0009d0  2d0b              CMP      r5,#0xb
0009d2  da5d              BGE      |L1.2704|
0009d4  48be              LDR      r0,|L1.3280|
0009d6  5d40              LDRB     r0,[r0,r5]
0009d8  2886              CMP      r0,#0x86
0009da  d159              BNE      |L1.2704|
;;;658    											{
;;;659    												  Co2_value.Buf8[0] = usart_CO2_rec_temp[co2_decode_count+2];
0009dc  49bc              LDR      r1,|L1.3280|
0009de  1ca8              ADDS     r0,r5,#2
0009e0  5c08              LDRB     r0,[r1,r0]
0009e2  49bc              LDR      r1,|L1.3284|
0009e4  7008              STRB     r0,[r1,#0]
;;;660    													Co2_value.Buf8[1] = usart_CO2_rec_temp[co2_decode_count+1];
0009e6  49ba              LDR      r1,|L1.3280|
0009e8  1c68              ADDS     r0,r5,#1
0009ea  5c08              LDRB     r0,[r1,r0]
0009ec  49b9              LDR      r1,|L1.3284|
0009ee  7048              STRB     r0,[r1,#1]
;;;661    													if(Co2_value.Buf16 > HIGH_CO2)
0009f0  4608              MOV      r0,r1
0009f2  8800              LDRH     r0,[r0,#0]  ; Co2_value
0009f4  f64011c4          MOV      r1,#0x9c4
0009f8  4288              CMP      r0,r1
0009fa  dd14              BLE      |L1.2598|
;;;662    													{
;;;663    														  if(led_off_flag==0)
0009fc  48b6              LDR      r0,|L1.3288|
0009fe  7800              LDRB     r0,[r0,#0]  ; led_off_flag
000a00  b908              CBNZ     r0,|L1.2566|
;;;664    															{
;;;665    															   co2_Purple_Led();
000a02  f7fffffe          BL       co2_Purple_Led
                  |L1.2566|
;;;666    															}
;;;667    														  co2_pollute_flag = 1;
000a06  2001              MOVS     r0,#1
000a08  49b3              LDR      r1,|L1.3288|
000a0a  391a              SUBS     r1,r1,#0x1a
000a0c  7008              STRB     r0,[r1,#0]
;;;668    														  LCD_buffer[7] &= 0x0E;//display_graphic_led_clear();
000a0e  48b3              LDR      r0,|L1.3292|
000a10  79c0              LDRB     r0,[r0,#7]  ; LCD_buffer
000a12  f000000e          AND      r0,r0,#0xe
000a16  49b1              LDR      r1,|L1.3292|
000a18  71c8              STRB     r0,[r1,#7]
;;;669    														  LCD_buffer[7] |= 0x02;
000a1a  4608              MOV      r0,r1
000a1c  79c0              LDRB     r0,[r0,#7]  ; LCD_buffer
000a1e  f0400002          ORR      r0,r0,#2
000a22  71c8              STRB     r0,[r1,#7]
000a24  e034              B        |L1.2704|
                  |L1.2598|
;;;670    													}
;;;671    													else if(Co2_value.Buf16 > MID_CO2)	
000a26  48ab              LDR      r0,|L1.3284|
000a28  8800              LDRH     r0,[r0,#0]  ; Co2_value
000a2a  f5b06faf          CMP      r0,#0x578
000a2e  dd14              BLE      |L1.2650|
;;;672    													{
;;;673    														  if(led_off_flag==0)
000a30  48a9              LDR      r0,|L1.3288|
000a32  7800              LDRB     r0,[r0,#0]  ; led_off_flag
000a34  b908              CBNZ     r0,|L1.2618|
;;;674    															{
;;;675    															  co2_Red_Led();
000a36  f7fffffe          BL       co2_Red_Led
                  |L1.2618|
;;;676    															}
;;;677    														  co2_pollute_flag = 1;
000a3a  2001              MOVS     r0,#1
000a3c  49a6              LDR      r1,|L1.3288|
000a3e  391a              SUBS     r1,r1,#0x1a
000a40  7008              STRB     r0,[r1,#0]
;;;678    														  LCD_buffer[7] &= 0x0E;//display_graphic_led_clear();
000a42  48a6              LDR      r0,|L1.3292|
000a44  79c0              LDRB     r0,[r0,#7]  ; LCD_buffer
000a46  f000000e          AND      r0,r0,#0xe
000a4a  49a4              LDR      r1,|L1.3292|
000a4c  71c8              STRB     r0,[r1,#7]
;;;679    														  LCD_buffer[7] |= 0x02;
000a4e  4608              MOV      r0,r1
000a50  79c0              LDRB     r0,[r0,#7]  ; LCD_buffer
000a52  f0400002          ORR      r0,r0,#2
000a56  71c8              STRB     r0,[r1,#7]
000a58  e01a              B        |L1.2704|
                  |L1.2650|
;;;680    													}
;;;681    													else if(Co2_value.Buf16 > MID_LOW_CO2)
000a5a  489e              LDR      r0,|L1.3284|
000a5c  8800              LDRH     r0,[r0,#0]  ; Co2_value
000a5e  f24021ee          MOV      r1,#0x2ee
000a62  4288              CMP      r0,r1
000a64  dd05              BLE      |L1.2674|
;;;682    													{
;;;683    														  if(led_off_flag==0)
000a66  489c              LDR      r0,|L1.3288|
000a68  7800              LDRB     r0,[r0,#0]  ; led_off_flag
000a6a  b988              CBNZ     r0,|L1.2704|
;;;684    															{
;;;685    															   co2_Yellow_Led();
000a6c  f7fffffe          BL       co2_Yellow_Led
000a70  e00e              B        |L1.2704|
                  |L1.2674|
;;;686    															}
;;;687    														  //LCD_buffer[7] &= 0x0D;//display_graphic_led_clear();
;;;688    														  //LCD_buffer[7] |= 0x01;
;;;689    													}
;;;690    													else 
;;;691    													{
;;;692    														  if(led_off_flag==0)
000a72  4899              LDR      r0,|L1.3288|
000a74  7800              LDRB     r0,[r0,#0]  ; led_off_flag
000a76  b908              CBNZ     r0,|L1.2684|
;;;693    															{
;;;694    															  co2_Green_Led();
000a78  f7fffffe          BL       co2_Green_Led
                  |L1.2684|
;;;695    															}
;;;696    														  co2_pollute_flag = 0;
000a7c  2000              MOVS     r0,#0
000a7e  4996              LDR      r1,|L1.3288|
000a80  391a              SUBS     r1,r1,#0x1a
000a82  7008              STRB     r0,[r1,#0]
;;;697    														  LCD_buffer[7] &= 0x0D;//display_graphic_led_clear();
000a84  4895              LDR      r0,|L1.3292|
000a86  79c0              LDRB     r0,[r0,#7]  ; LCD_buffer
000a88  f000000d          AND      r0,r0,#0xd
000a8c  4993              LDR      r1,|L1.3292|
000a8e  71c8              STRB     r0,[r1,#7]
                  |L1.2704|
;;;698    														  //LCD_buffer[7] |= 0x01;
;;;699    													}
;;;700                          }
;;;701                        }
;;;702    								flag_getCO2_value = 0;		
000a90  2000              MOVS     r0,#0
000a92  4993              LDR      r1,|L1.3296|
000a94  7008              STRB     r0,[r1,#0]
                  |L1.2710|
;;;703    										
;;;704    							}
;;;705    // 							if(flag_getPM_value==0&&flag_PM_PW==1)
;;;706    // 							{
;;;707    // 								USART_Cmd(USART2,ENABLE);
;;;708    // 							}
;;;709    							
;;;710    							if(flag_getPM_value==1&&shut_off_all_sensor==0&&start_delay_30_flag==1)
000a96  4893              LDR      r0,|L1.3300|
000a98  7800              LDRB     r0,[r0,#0]  ; flag_getPM_value
000a9a  2801              CMP      r0,#1
000a9c  d169              BNE      |L1.2930|
000a9e  4892              LDR      r0,|L1.3304|
000aa0  7800              LDRB     r0,[r0,#0]  ; shut_off_all_sensor
000aa2  2800              CMP      r0,#0
000aa4  d165              BNE      |L1.2930|
000aa6  488c              LDR      r0,|L1.3288|
000aa8  3810              SUBS     r0,r0,#0x10
000aaa  7800              LDRB     r0,[r0,#0]  ; start_delay_30_flag
000aac  2801              CMP      r0,#1
000aae  d160              BNE      |L1.2930|
;;;711    							{
;;;712    										decode_PM_data();
000ab0  f7fffffe          BL       decode_PM_data
;;;713    
;;;714    										if(PM2_5_concentration.Buf16 > HIGH_PM2_5)
000ab4  488d              LDR      r0,|L1.3308|
000ab6  8800              LDRH     r0,[r0,#0]  ; PM2_5_concentration
000ab8  2896              CMP      r0,#0x96
000aba  dd14              BLE      |L1.2790|
;;;715    										{
;;;716    											  if(led_off_flag==0)
000abc  4886              LDR      r0,|L1.3288|
000abe  7800              LDRB     r0,[r0,#0]  ; led_off_flag
000ac0  b908              CBNZ     r0,|L1.2758|
;;;717    												{
;;;718    												  PM2_5_Purple_Led();
000ac2  f7fffffe          BL       PM2_5_Purple_Led
                  |L1.2758|
;;;719    												}
;;;720    											  PM2_5_pollute_flag = 1;
000ac6  2001              MOVS     r0,#1
000ac8  4983              LDR      r1,|L1.3288|
000aca  3919              SUBS     r1,r1,#0x19
000acc  7008              STRB     r0,[r1,#0]
;;;721    											  LCD_buffer[7] &= 0x0E;//display_graphic_led_clear();
000ace  4883              LDR      r0,|L1.3292|
000ad0  79c0              LDRB     r0,[r0,#7]  ; LCD_buffer
000ad2  f000000e          AND      r0,r0,#0xe
000ad6  4981              LDR      r1,|L1.3292|
000ad8  71c8              STRB     r0,[r1,#7]
;;;722    											  LCD_buffer[7] |= 0x04;
000ada  4608              MOV      r0,r1
000adc  79c0              LDRB     r0,[r0,#7]  ; LCD_buffer
000ade  f0400004          ORR      r0,r0,#4
000ae2  71c8              STRB     r0,[r1,#7]
000ae4  e040              B        |L1.2920|
                  |L1.2790|
;;;723    										}
;;;724    										else if(PM2_5_concentration.Buf16 > MID_PM2_5)	
000ae6  4881              LDR      r0,|L1.3308|
000ae8  8800              LDRH     r0,[r0,#0]  ; PM2_5_concentration
000aea  2864              CMP      r0,#0x64
000aec  dd14              BLE      |L1.2840|
;;;725    										{
;;;726    											  if(led_off_flag==0)
000aee  487a              LDR      r0,|L1.3288|
000af0  7800              LDRB     r0,[r0,#0]  ; led_off_flag
000af2  b908              CBNZ     r0,|L1.2808|
;;;727    												{
;;;728    												   PM2_5_Red_Led();
000af4  f7fffffe          BL       PM2_5_Red_Led
                  |L1.2808|
;;;729    												}
;;;730    											  PM2_5_pollute_flag = 1;
000af8  2001              MOVS     r0,#1
000afa  4977              LDR      r1,|L1.3288|
000afc  3919              SUBS     r1,r1,#0x19
000afe  7008              STRB     r0,[r1,#0]
;;;731    											  LCD_buffer[7] &= 0x0E;//display_graphic_led_clear();
000b00  4876              LDR      r0,|L1.3292|
000b02  79c0              LDRB     r0,[r0,#7]  ; LCD_buffer
000b04  f000000e          AND      r0,r0,#0xe
000b08  4974              LDR      r1,|L1.3292|
000b0a  71c8              STRB     r0,[r1,#7]
;;;732    											  LCD_buffer[7] |= 0x04;
000b0c  4608              MOV      r0,r1
000b0e  79c0              LDRB     r0,[r0,#7]  ; LCD_buffer
000b10  f0400004          ORR      r0,r0,#4
000b14  71c8              STRB     r0,[r1,#7]
000b16  e027              B        |L1.2920|
                  |L1.2840|
;;;733    										}
;;;734    										else if(PM2_5_concentration.Buf16 > MID_LOW_PM2_5)
000b18  4874              LDR      r0,|L1.3308|
000b1a  8800              LDRH     r0,[r0,#0]  ; PM2_5_concentration
000b1c  283c              CMP      r0,#0x3c
000b1e  dd10              BLE      |L1.2882|
;;;735    										{
;;;736    											  if(led_off_flag==0)
000b20  486d              LDR      r0,|L1.3288|
000b22  7800              LDRB     r0,[r0,#0]  ; led_off_flag
000b24  b908              CBNZ     r0,|L1.2858|
;;;737    												{
;;;738    												  PM2_5_Yellow_Led();
000b26  f7fffffe          BL       PM2_5_Yellow_Led
                  |L1.2858|
;;;739    												}
;;;740    											  if(PM2_5_pollute_flag==1)
000b2a  486b              LDR      r0,|L1.3288|
000b2c  3819              SUBS     r0,r0,#0x19
000b2e  7800              LDRB     r0,[r0,#0]  ; PM2_5_pollute_flag
000b30  2801              CMP      r0,#1
000b32  d119              BNE      |L1.2920|
;;;741    												{
;;;742    													LCD_buffer[7] |= 0x04;
000b34  4869              LDR      r0,|L1.3292|
000b36  79c0              LDRB     r0,[r0,#7]  ; LCD_buffer
000b38  f0400004          ORR      r0,r0,#4
000b3c  4967              LDR      r1,|L1.3292|
000b3e  71c8              STRB     r0,[r1,#7]
000b40  e012              B        |L1.2920|
                  |L1.2882|
;;;743                            }
;;;744    											  //LCD_buffer[7] &= 0x0B;//display_graphic_led_clear();
;;;745    										}
;;;746    										else
;;;747    										{
;;;748    											  if(led_off_flag==0)
000b42  4865              LDR      r0,|L1.3288|
000b44  7800              LDRB     r0,[r0,#0]  ; led_off_flag
000b46  b908              CBNZ     r0,|L1.2892|
;;;749    												{
;;;750    												   PM2_5_Green_Led();
000b48  f7fffffe          BL       PM2_5_Green_Led
                  |L1.2892|
;;;751    												}
;;;752    												if(last_recycle_shut_flag==0)
000b4c  4862              LDR      r0,|L1.3288|
000b4e  382f              SUBS     r0,r0,#0x2f
000b50  7800              LDRB     r0,[r0,#0]  ; last_recycle_shut_flag
000b52  b948              CBNZ     r0,|L1.2920|
;;;753    												{
;;;754    													PM2_5_pollute_flag = 0;
000b54  2000              MOVS     r0,#0
000b56  4960              LDR      r1,|L1.3288|
000b58  3919              SUBS     r1,r1,#0x19
000b5a  7008              STRB     r0,[r1,#0]
;;;755    													LCD_buffer[7] &= 0x0B;
000b5c  485f              LDR      r0,|L1.3292|
000b5e  79c0              LDRB     r0,[r0,#7]  ; LCD_buffer
000b60  f000000b          AND      r0,r0,#0xb
000b64  495d              LDR      r1,|L1.3292|
000b66  71c8              STRB     r0,[r1,#7]
                  |L1.2920|
;;;756    												}
;;;757    										}
;;;758    										clear_PM_rec();
000b68  f7fffffe          BL       clear_PM_rec
;;;759    										flag_getPM_value = 0;
000b6c  2000              MOVS     r0,#0
000b6e  495d              LDR      r1,|L1.3300|
000b70  7008              STRB     r0,[r1,#0]
                  |L1.2930|
;;;760    							}
;;;761    							if(PM2_5_pollute_flag==0&&co2_pollute_flag==0&&shut_off_all_sensor==0)
000b72  4859              LDR      r0,|L1.3288|
000b74  3819              SUBS     r0,r0,#0x19
000b76  7800              LDRB     r0,[r0,#0]  ; PM2_5_pollute_flag
000b78  b960              CBNZ     r0,|L1.2964|
000b7a  4857              LDR      r0,|L1.3288|
000b7c  381a              SUBS     r0,r0,#0x1a
000b7e  7800              LDRB     r0,[r0,#0]  ; co2_pollute_flag
000b80  b940              CBNZ     r0,|L1.2964|
000b82  4859              LDR      r0,|L1.3304|
000b84  7800              LDRB     r0,[r0,#0]  ; shut_off_all_sensor
000b86  b928              CBNZ     r0,|L1.2964|
;;;762    							{
;;;763    								LCD_buffer[7] |= 0x01;
000b88  4854              LDR      r0,|L1.3292|
000b8a  79c0              LDRB     r0,[r0,#7]  ; LCD_buffer
000b8c  f0400001          ORR      r0,r0,#1
000b90  4952              LDR      r1,|L1.3292|
000b92  71c8              STRB     r0,[r1,#7]
                  |L1.2964|
;;;764    							}
;;;765    							if((LCD_buffer[7]&0x07)==0&&led_off_flag==0&&shut_off_all_sensor==0)
000b94  4851              LDR      r0,|L1.3292|
000b96  79c0              LDRB     r0,[r0,#7]  ; LCD_buffer
000b98  f0100f07          TST      r0,#7
000b9c  d10b              BNE      |L1.2998|
000b9e  484e              LDR      r0,|L1.3288|
000ba0  7800              LDRB     r0,[r0,#0]  ; led_off_flag
000ba2  b940              CBNZ     r0,|L1.2998|
000ba4  4850              LDR      r0,|L1.3304|
000ba6  7800              LDRB     r0,[r0,#0]  ; shut_off_all_sensor
000ba8  b928              CBNZ     r0,|L1.2998|
;;;766    							{
;;;767    								LCD_buffer[7] |= 0x01;
000baa  484c              LDR      r0,|L1.3292|
000bac  79c0              LDRB     r0,[r0,#7]  ; LCD_buffer
000bae  f0400001          ORR      r0,r0,#1
000bb2  494a              LDR      r1,|L1.3292|
000bb4  71c8              STRB     r0,[r1,#7]
                  |L1.2998|
;;;768    							}
;;;769    							
;;;770    							if(timing_flag==1)
000bb6  4848              LDR      r0,|L1.3288|
000bb8  3828              SUBS     r0,r0,#0x28
000bba  7800              LDRB     r0,[r0,#0]  ; timing_flag
000bbc  2801              CMP      r0,#1
000bbe  d117              BNE      |L1.3056|
;;;771    							{
;;;772    										if(bsp_CheckTimer(0))
000bc0  2000              MOVS     r0,#0
000bc2  f7fffffe          BL       bsp_CheckTimer
000bc6  b148              CBZ      r0,|L1.3036|
;;;773    										{
;;;774    											timing_count++;
000bc8  4843              LDR      r0,|L1.3288|
000bca  382c              SUBS     r0,r0,#0x2c
000bcc  6800              LDR      r0,[r0,#0]  ; timing_count
000bce  1c40              ADDS     r0,r0,#1
000bd0  4941              LDR      r1,|L1.3288|
000bd2  392c              SUBS     r1,r1,#0x2c
000bd4  6008              STR      r0,[r1,#0]  ; timing_count
;;;775    											power_on_init_time_flag = 1;
000bd6  2001              MOVS     r0,#1
000bd8  3114              ADDS     r1,r1,#0x14
000bda  7008              STRB     r0,[r1,#0]
                  |L1.3036|
;;;776    										}
;;;777    										if(timing_count>=timing_time_min_value)
000bdc  483e              LDR      r0,|L1.3288|
000bde  382c              SUBS     r0,r0,#0x2c
000be0  6800              LDR      r0,[r0,#0]  ; timing_count
000be2  493d              LDR      r1,|L1.3288|
000be4  3924              SUBS     r1,r1,#0x24
000be6  6809              LDR      r1,[r1,#0]  ; timing_time_min_value
000be8  4288              CMP      r0,r1
000bea  db01              BLT      |L1.3056|
;;;778    										{
;;;779    											 power_off();
000bec  f7fffffe          BL       power_off
                  |L1.3056|
;;;780    										}
;;;781    							}
;;;782    							
;;;783    							if(mode_time_switch_flag)
000bf0  4839              LDR      r0,|L1.3288|
000bf2  3820              SUBS     r0,r0,#0x20
000bf4  7800              LDRB     r0,[r0,#0]  ; mode_time_switch_flag
000bf6  2800              CMP      r0,#0
000bf8  d069              BEQ      |L1.3278|
;;;784    							{
;;;785    								  if((co2_pollute_flag == 0)&&(PM2_5_pollute_flag == 0))
000bfa  4837              LDR      r0,|L1.3288|
000bfc  381a              SUBS     r0,r0,#0x1a
000bfe  7800              LDRB     r0,[r0,#0]  ; co2_pollute_flag
000c00  2800              CMP      r0,#0
                  |L1.3074|
000c02  d179              BNE      |L1.3320|
000c04  4834              LDR      r0,|L1.3288|
000c06  3819              SUBS     r0,r0,#0x19
000c08  7800              LDRB     r0,[r0,#0]  ; PM2_5_pollute_flag
000c0a  2800              CMP      r0,#0
000c0c  d1f9              BNE      |L1.3074|
;;;786    									{
;;;787    																if(bsp_CheckTimer(1))
000c0e  2001              MOVS     r0,#1
000c10  f7fffffe          BL       bsp_CheckTimer
000c14  b130              CBZ      r0,|L1.3108|
;;;788    																{
;;;789    																	mode_time_count++;
000c16  4830              LDR      r0,|L1.3288|
000c18  3814              SUBS     r0,r0,#0x14
000c1a  6800              LDR      r0,[r0,#0]  ; mode_time_count
000c1c  1c40              ADDS     r0,r0,#1
000c1e  492e              LDR      r1,|L1.3288|
000c20  3914              SUBS     r1,r1,#0x14
000c22  6008              STR      r0,[r1,#0]  ; mode_time_count
                  |L1.3108|
;;;790    																}
;;;791    																if(work_mode==0)//auto
000c24  482c              LDR      r0,|L1.3288|
000c26  381e              SUBS     r0,r0,#0x1e
000c28  7800              LDRB     r0,[r0,#0]  ; work_mode
000c2a  2800              CMP      r0,#0
000c2c  d17e              BNE      |L1.3372|
;;;792    																{
;;;793    																	switch(work_0_1_mode_state)
000c2e  482a              LDR      r0,|L1.3288|
000c30  381f              SUBS     r0,r0,#0x1f
000c32  7800              LDRB     r0,[r0,#0]  ; work_0_1_mode_state
000c34  b120              CBZ      r0,|L1.3136|
000c36  2801              CMP      r0,#1
000c38  d05f              BEQ      |L1.3322|
000c3a  2802              CMP      r0,#2
000c3c  d146              BNE      |L1.3276|
000c3e  e0a1              B        |L1.3460|
                  |L1.3136|
;;;794    																	{
;;;795    																		
;;;796    																		 case 0:
;;;797    																					 if(mode_time_count>=3||pollute_flag_last==1)
000c40  4825              LDR      r0,|L1.3288|
000c42  3814              SUBS     r0,r0,#0x14
000c44  6800              LDR      r0,[r0,#0]  ; mode_time_count
000c46  2803              CMP      r0,#3
000c48  da04              BGE      |L1.3156|
000c4a  4823              LDR      r0,|L1.3288|
000c4c  3817              SUBS     r0,r0,#0x17
000c4e  7800              LDRB     r0,[r0,#0]  ; pollute_flag_last
000c50  2801              CMP      r0,#1
000c52  d13b              BNE      |L1.3276|
                  |L1.3156|
;;;798    																					 {
;;;799    																						  pollute_flag_last = 0;
000c54  2000              MOVS     r0,#0
000c56  4920              LDR      r1,|L1.3288|
000c58  3917              SUBS     r1,r1,#0x17
000c5a  7008              STRB     r0,[r1,#0]
;;;800    																							work_0_1_mode_state = 1;
000c5c  2001              MOVS     r0,#1
000c5e  3908              SUBS     r1,r1,#8
000c60  7008              STRB     r0,[r1,#0]
;;;801    																							mode_time_count =0;	
000c62  2000              MOVS     r0,#0
000c64  310b              ADDS     r1,r1,#0xb
000c66  6008              STR      r0,[r1,#0]  ; mode_time_count
;;;802    																						  {
;;;803    																							    TIM3->CCR2 = DC_MOTOR_MID_SPEED;//48;
000c68  2004              MOVS     r0,#4
000c6a  4921              LDR      r1,|L1.3312|
000c6c  8008              STRH     r0,[r1,#0]
;;;804    																						  	 //display_graphic_speed_33x64(display_mid_speed);
;;;805    																									LCD_buffer[1] |= 0x08;//led speed
000c6e  481b              LDR      r0,|L1.3292|
000c70  7840              LDRB     r0,[r0,#1]  ; LCD_buffer
000c72  f0400008          ORR      r0,r0,#8
000c76  4919              LDR      r1,|L1.3292|
000c78  7048              STRB     r0,[r1,#1]
;;;806    																									LCD_buffer[2]  = 0x0C;
000c7a  f04f000c          MOV      r0,#0xc
000c7e  7088              STRB     r0,[r1,#2]
;;;807    																									dc_motor_speed_count = 2;
000c80  f04f0002          MOV      r0,#2
000c84  4914              LDR      r1,|L1.3288|
000c86  f1a10104          SUB      r1,r1,#4
000c8a  7008              STRB     r0,[r1,#0]
;;;808                                                  }
;;;809    																							dc_motor_speed_count = 2;
000c8c  7008              STRB     r0,[r1,#0]
;;;810    																							
;;;811    																						  //if(display_chang_face_flag==0)
;;;812    																							{
;;;813    																							   //display_graphic_win_dir_39x64(display_out_dir);
;;;814    																								LCD_buffer[1] &= 0x08;
000c8e  4813              LDR      r0,|L1.3292|
000c90  7840              LDRB     r0,[r0,#1]  ; LCD_buffer
000c92  f0000008          AND      r0,r0,#8
000c96  4911              LDR      r1,|L1.3292|
000c98  7048              STRB     r0,[r1,#1]
;;;815    																								LCD_buffer[1] |= 0x02;
000c9a  4608              MOV      r0,r1
000c9c  7840              LDRB     r0,[r0,#1]  ; LCD_buffer
000c9e  f0400002          ORR      r0,r0,#2
000ca2  7048              STRB     r0,[r1,#1]
;;;816    																							}
;;;817    																	
;;;818    																							{
;;;819    																								ANION_EN;
000ca4  f44f7080          MOV      r0,#0x100
000ca8  4912              LDR      r1,|L1.3316|
000caa  6108              STR      r0,[r1,#0x10]
;;;820    																								anion_PW_state = 1;
000cac  f04f0001          MOV      r0,#1
000cb0  4909              LDR      r1,|L1.3288|
000cb2  f1a10127          SUB      r1,r1,#0x27
000cb6  7008              STRB     r0,[r1,#0]
;;;821    																								LCD_buffer[7] |= 0x08;//display_graphic_tree_32x64(display_tree);
000cb8  4808              LDR      r0,|L1.3292|
000cba  79c0              LDRB     r0,[r0,#7]  ; LCD_buffer
000cbc  f0400008          ORR      r0,r0,#8
000cc0  4906              LDR      r1,|L1.3292|
000cc2  71c8              STRB     r0,[r1,#7]
;;;822    																							}
;;;823    																							Refresh_LCD();
000cc4  f7fffffe          BL       Refresh_LCD
;;;824    																							step_motor_out();
000cc8  f7fffffe          BL       step_motor_out
                  |L1.3276|
;;;825    																							
;;;826    																							//display_graphic_33x64(display_A);
;;;827    																					 }
;;;828    																					 break;
000ccc  e09f              B        |L1.3598|
                  |L1.3278|
000cce  e1c1              B        |L1.4180|
                  |L1.3280|
                          DCD      usart_CO2_rec_temp
                  |L1.3284|
                          DCD      Co2_value
                  |L1.3288|
                          DCD      ||.data||+0x4c
                  |L1.3292|
                          DCD      LCD_buffer
                  |L1.3296|
                          DCD      flag_getCO2_value
                  |L1.3300|
                          DCD      flag_getPM_value
                  |L1.3304|
                          DCD      shut_off_all_sensor
                  |L1.3308|
                          DCD      PM2_5_concentration
                  |L1.3312|
                          DCD      0x40000438
                  |L1.3316|
                          DCD      0x40011000
                  |L1.3320|
000cf8  e16c              B        |L1.4052|
                  |L1.3322|
;;;829    																		case 1:
;;;830    																					 if(mode_time_count>=2||pollute_flag_last==1)
000cfa  48fc              LDR      r0,|L1.4332|
000cfc  6800              LDR      r0,[r0,#0]  ; mode_time_count
000cfe  2802              CMP      r0,#2
000d00  da04              BGE      |L1.3340|
000d02  48fa              LDR      r0,|L1.4332|
000d04  1ec0              SUBS     r0,r0,#3
000d06  7800              LDRB     r0,[r0,#0]  ; pollute_flag_last
000d08  2801              CMP      r0,#1
000d0a  d13a              BNE      |L1.3458|
                  |L1.3340|
;;;831    																					 {
;;;832    																						 pollute_flag_last = 0;
000d0c  2000              MOVS     r0,#0
000d0e  49f7              LDR      r1,|L1.4332|
000d10  1ec9              SUBS     r1,r1,#3
000d12  7008              STRB     r0,[r1,#0]
;;;833    																							work_0_1_mode_state = 2;
000d14  2002              MOVS     r0,#2
000d16  3908              SUBS     r1,r1,#8
000d18  7008              STRB     r0,[r1,#0]
;;;834    																							mode_time_count =0;	
000d1a  2000              MOVS     r0,#0
000d1c  310b              ADDS     r1,r1,#0xb
000d1e  6008              STR      r0,[r1,#0]  ; mode_time_count
;;;835    																							TIM3->CCR2 = 0;
000d20  49f3              LDR      r1,|L1.4336|
000d22  8008              STRH     r0,[r1,#0]
;;;836    																							dc_motor_speed_count = 4;
000d24  f04f0004          MOV      r0,#4
000d28  49f0              LDR      r1,|L1.4332|
000d2a  e000              B        |L1.3374|
                  |L1.3372|
000d2c  e070              B        |L1.3600|
                  |L1.3374|
000d2e  f1010110          ADD      r1,r1,#0x10
000d32  7008              STRB     r0,[r1,#0]
;;;837    																							{
;;;838    																									//display_graphic_speed_33x64(display_no_speed);
;;;839    																									LCD_buffer[1] |= 0x08;//led speed
000d34  48ef              LDR      r0,|L1.4340|
000d36  7840              LDRB     r0,[r0,#1]  ; LCD_buffer
000d38  f0400008          ORR      r0,r0,#8
000d3c  49ed              LDR      r1,|L1.4340|
000d3e  7048              STRB     r0,[r1,#1]
;;;840    																									LCD_buffer[2]  = 0x00;                                            
000d40  f04f0000          MOV      r0,#0
000d44  7088              STRB     r0,[r1,#2]
;;;841                                                   }
;;;842    																								
;;;843    																						  //if(display_chang_face_flag==0)
;;;844    																							{
;;;845    																							   //display_graphic_win_dir_39x64(display_out_dir);
;;;846    																								LCD_buffer[1] &= 0x08;
000d46  4608              MOV      r0,r1
000d48  7840              LDRB     r0,[r0,#1]  ; LCD_buffer
000d4a  f0000008          AND      r0,r0,#8
000d4e  7048              STRB     r0,[r1,#1]
;;;847    																								LCD_buffer[1] |= 0x02;
000d50  4608              MOV      r0,r1
000d52  7840              LDRB     r0,[r0,#1]  ; LCD_buffer
000d54  f0400002          ORR      r0,r0,#2
000d58  7048              STRB     r0,[r1,#1]
;;;848    																							}
;;;849    
;;;850    																							{
;;;851    																								ANION_DISABLE;
000d5a  f44f7080          MOV      r0,#0x100
000d5e  49e6              LDR      r1,|L1.4344|
000d60  6148              STR      r0,[r1,#0x14]
;;;852    																								anion_PW_state = 0;
000d62  f04f0000          MOV      r0,#0
000d66  49e1              LDR      r1,|L1.4332|
000d68  f1a10113          SUB      r1,r1,#0x13
000d6c  7008              STRB     r0,[r1,#0]
;;;853    																								LCD_buffer[7] &= 0x07;//display_graphic_tree_clear();
000d6e  48e1              LDR      r0,|L1.4340|
000d70  79c0              LDRB     r0,[r0,#7]  ; LCD_buffer
000d72  f0000007          AND      r0,r0,#7
000d76  49df              LDR      r1,|L1.4340|
000d78  71c8              STRB     r0,[r1,#7]
;;;854    																							}
;;;855    																							Refresh_LCD();
000d7a  f7fffffe          BL       Refresh_LCD
;;;856    																							step_motor_out();
000d7e  f7fffffe          BL       step_motor_out
                  |L1.3458|
;;;857    																							
;;;858    																					 }
;;;859    																					 break;
000d82  e044              B        |L1.3598|
                  |L1.3460|
;;;860    																		case 2:							     
;;;861    																					 if(mode_time_count>=1||pollute_flag_last==1)
000d84  48d9              LDR      r0,|L1.4332|
000d86  6800              LDR      r0,[r0,#0]  ; mode_time_count
000d88  2801              CMP      r0,#1
000d8a  da04              BGE      |L1.3478|
000d8c  48d7              LDR      r0,|L1.4332|
000d8e  1ec0              SUBS     r0,r0,#3
000d90  7800              LDRB     r0,[r0,#0]  ; pollute_flag_last
000d92  2801              CMP      r0,#1
000d94  d13a              BNE      |L1.3596|
                  |L1.3478|
;;;862    																					 {
;;;863    																						  pollute_flag_last = 0;
000d96  2000              MOVS     r0,#0
000d98  49d4              LDR      r1,|L1.4332|
000d9a  1ec9              SUBS     r1,r1,#3
000d9c  7008              STRB     r0,[r1,#0]
;;;864    																							work_0_1_mode_state = 0;
000d9e  3908              SUBS     r1,r1,#8
000da0  7008              STRB     r0,[r1,#0]
;;;865    																							mode_time_count =0;	
000da2  310b              ADDS     r1,r1,#0xb
000da4  6008              STR      r0,[r1,#0]  ; mode_time_count
;;;866                                                  {		
;;;867                                                      start_motor();																								
000da6  f7fffffe          BL       start_motor
;;;868    																									TIM3->CCR2 = DC_MOTOR_MID_SPEED;//48;	
000daa  2004              MOVS     r0,#4
000dac  49d0              LDR      r1,|L1.4336|
000dae  8008              STRH     r0,[r1,#0]
;;;869    																								 //display_graphic_speed_33x64(display_mid_speed);
;;;870    																									LCD_buffer[1] |= 0x08;//led speed
000db0  48d0              LDR      r0,|L1.4340|
000db2  7840              LDRB     r0,[r0,#1]  ; LCD_buffer
000db4  f0400008          ORR      r0,r0,#8
000db8  49ce              LDR      r1,|L1.4340|
000dba  7048              STRB     r0,[r1,#1]
;;;871    																									LCD_buffer[2]  = 0x0C;
000dbc  f04f000c          MOV      r0,#0xc
000dc0  7088              STRB     r0,[r1,#2]
;;;872    																									dc_motor_speed_count = 2;
000dc2  f04f0002          MOV      r0,#2
000dc6  49c9              LDR      r1,|L1.4332|
000dc8  f1010110          ADD      r1,r1,#0x10
000dcc  7008              STRB     r0,[r1,#0]
;;;873                                                  }
;;;874    																							
;;;875    																						  //if(display_chang_face_flag==0)
;;;876    																							{
;;;877    																							   LCD_buffer[1] &= 0x08;//display_graphic_win_dir_39x56(display_in_dir);
000dce  48c9              LDR      r0,|L1.4340|
000dd0  7840              LDRB     r0,[r0,#1]  ; LCD_buffer
000dd2  f0000008          AND      r0,r0,#8
000dd6  49c7              LDR      r1,|L1.4340|
000dd8  7048              STRB     r0,[r1,#1]
;;;878                                                     LCD_buffer[1] |= 0x03;																						
000dda  4608              MOV      r0,r1
000ddc  7840              LDRB     r0,[r0,#1]  ; LCD_buffer
000dde  f0400003          ORR      r0,r0,#3
000de2  7048              STRB     r0,[r1,#1]
;;;879    																							}
;;;880    
;;;881    																							{
;;;882    																								ANION_EN;
000de4  f44f7080          MOV      r0,#0x100
000de8  49c3              LDR      r1,|L1.4344|
000dea  6108              STR      r0,[r1,#0x10]
;;;883    																								anion_PW_state = 1;
000dec  f04f0001          MOV      r0,#1
000df0  49be              LDR      r1,|L1.4332|
000df2  f1a10113          SUB      r1,r1,#0x13
000df6  7008              STRB     r0,[r1,#0]
;;;884    																								LCD_buffer[7] |= 0x08;//display_graphic_tree_32x64(display_tree);
000df8  48be              LDR      r0,|L1.4340|
000dfa  79c0              LDRB     r0,[r0,#7]  ; LCD_buffer
000dfc  f0400008          ORR      r0,r0,#8
000e00  49bc              LDR      r1,|L1.4340|
000e02  71c8              STRB     r0,[r1,#7]
;;;885    																							}
;;;886    
;;;887                                                  Refresh_LCD();	
000e04  f7fffffe          BL       Refresh_LCD
;;;888                                                  step_motor_in();																							
000e08  f7fffffe          BL       step_motor_in
                  |L1.3596|
;;;889    																					 }										 
;;;890    																					 break;
000e0c  bf00              NOP      
                  |L1.3598|
000e0e  e153              B        |L1.4280|
                  |L1.3600|
;;;891    																	}
;;;892    																	
;;;893    																}
;;;894    																else if(work_mode==1||work_mode==2)
000e10  48b6              LDR      r0,|L1.4332|
000e12  380a              SUBS     r0,r0,#0xa
000e14  7800              LDRB     r0,[r0,#0]  ; work_mode
000e16  2801              CMP      r0,#1
000e18  d004              BEQ      |L1.3620|
000e1a  48b4              LDR      r0,|L1.4332|
000e1c  380a              SUBS     r0,r0,#0xa
000e1e  7800              LDRB     r0,[r0,#0]  ; work_mode
000e20  2802              CMP      r0,#2
000e22  d1f4              BNE      |L1.3598|
                  |L1.3620|
;;;895    																{
;;;896    																		switch(work_0_1_mode_state)
000e24  48b1              LDR      r0,|L1.4332|
000e26  380b              SUBS     r0,r0,#0xb
000e28  7800              LDRB     r0,[r0,#0]  ; work_0_1_mode_state
000e2a  b120              CBZ      r0,|L1.3638|
000e2c  2801              CMP      r0,#1
000e2e  d047              BEQ      |L1.3776|
000e30  2802              CMP      r0,#2
000e32  d144              BNE      |L1.3774|
000e34  e088              B        |L1.3912|
                  |L1.3638|
;;;897    																		{
;;;898    																			case 0:										 
;;;899    																						 if(mode_time_count>=3||pollute_flag_last==1)
000e36  48ad              LDR      r0,|L1.4332|
000e38  6800              LDR      r0,[r0,#0]  ; mode_time_count
000e3a  2803              CMP      r0,#3
000e3c  da04              BGE      |L1.3656|
000e3e  48ab              LDR      r0,|L1.4332|
000e40  1ec0              SUBS     r0,r0,#3
000e42  7800              LDRB     r0,[r0,#0]  ; pollute_flag_last
000e44  2801              CMP      r0,#1
000e46  d13a              BNE      |L1.3774|
                  |L1.3656|
;;;900    																						 {
;;;901    																							  pollute_flag_last = 0;
000e48  2000              MOVS     r0,#0
000e4a  49a8              LDR      r1,|L1.4332|
000e4c  1ec9              SUBS     r1,r1,#3
000e4e  7008              STRB     r0,[r1,#0]
;;;902    																								work_0_1_mode_state = 1;
000e50  2001              MOVS     r0,#1
000e52  3908              SUBS     r1,r1,#8
000e54  7008              STRB     r0,[r1,#0]
;;;903    																								mode_time_count =0;	
000e56  2000              MOVS     r0,#0
000e58  310b              ADDS     r1,r1,#0xb
000e5a  6008              STR      r0,[r1,#0]  ; mode_time_count
;;;904    																								TIM3->CCR2 = DC_MOTOR_LOW_SPEED;//48;
000e5c  2003              MOVS     r0,#3
000e5e  49a4              LDR      r1,|L1.4336|
000e60  8008              STRH     r0,[r1,#0]
;;;905    																							  {
;;;906    																									//display_graphic_speed_33x64(display_low_speed);
;;;907    																									LCD_buffer[1] |= 0x08;//led speed
000e62  48a4              LDR      r0,|L1.4340|
000e64  7840              LDRB     r0,[r0,#1]  ; LCD_buffer
000e66  f0400008          ORR      r0,r0,#8
000e6a  49a2              LDR      r1,|L1.4340|
000e6c  7048              STRB     r0,[r1,#1]
;;;908    																									LCD_buffer[2]  = 0x08;                                            
000e6e  f04f0008          MOV      r0,#8
000e72  7088              STRB     r0,[r1,#2]
;;;909                                                    }
;;;910    																								dc_motor_speed_count = 3;
000e74  f04f0003          MOV      r0,#3
000e78  499c              LDR      r1,|L1.4332|
000e7a  f1010110          ADD      r1,r1,#0x10
000e7e  7008              STRB     r0,[r1,#0]
;;;911    																								
;;;912    																								//if(display_chang_face_flag==0)
;;;913    																								{
;;;914    																									 //display_graphic_win_dir_39x64(display_out_dir);
;;;915    																									LCD_buffer[1] &= 0x08;
000e80  489c              LDR      r0,|L1.4340|
000e82  7840              LDRB     r0,[r0,#1]  ; LCD_buffer
000e84  f0000008          AND      r0,r0,#8
000e88  499a              LDR      r1,|L1.4340|
000e8a  7048              STRB     r0,[r1,#1]
;;;916    																									LCD_buffer[1] |= 0x02;
000e8c  4608              MOV      r0,r1
000e8e  7840              LDRB     r0,[r0,#1]  ; LCD_buffer
000e90  f0400002          ORR      r0,r0,#2
000e94  7048              STRB     r0,[r1,#1]
;;;917    																								}
;;;918    																								
;;;919    																								{
;;;920    																									ANION_EN;
000e96  f44f7080          MOV      r0,#0x100
000e9a  4997              LDR      r1,|L1.4344|
000e9c  6108              STR      r0,[r1,#0x10]
;;;921    																									anion_PW_state = 1;
000e9e  f04f0001          MOV      r0,#1
000ea2  4992              LDR      r1,|L1.4332|
000ea4  f1a10113          SUB      r1,r1,#0x13
000ea8  7008              STRB     r0,[r1,#0]
;;;922    																									LCD_buffer[7] |= 0x08;//display_graphic_tree_32x64(display_tree);
000eaa  4892              LDR      r0,|L1.4340|
000eac  79c0              LDRB     r0,[r0,#7]  ; LCD_buffer
000eae  f0400008          ORR      r0,r0,#8
000eb2  4990              LDR      r1,|L1.4340|
000eb4  71c8              STRB     r0,[r1,#7]
;;;923    																								}
;;;924    
;;;925    																								Refresh_LCD();
000eb6  f7fffffe          BL       Refresh_LCD
;;;926    																								step_motor_out();
000eba  f7fffffe          BL       step_motor_out
                  |L1.3774|
;;;927    																								//display_graphic_33x64(display_A);
;;;928    																						 }										 
;;;929    																						 break;
000ebe  e088              B        |L1.4050|
                  |L1.3776|
;;;930    																			case 1:										 
;;;931    																						 if(mode_time_count>=2||pollute_flag_last==1)
000ec0  488a              LDR      r0,|L1.4332|
000ec2  6800              LDR      r0,[r0,#0]  ; mode_time_count
000ec4  2802              CMP      r0,#2
000ec6  da04              BGE      |L1.3794|
000ec8  4888              LDR      r0,|L1.4332|
000eca  1ec0              SUBS     r0,r0,#3
000ecc  7800              LDRB     r0,[r0,#0]  ; pollute_flag_last
000ece  2801              CMP      r0,#1
000ed0  d139              BNE      |L1.3910|
                  |L1.3794|
;;;932    																						 {
;;;933    																							  pollute_flag_last = 0;
000ed2  2000              MOVS     r0,#0
000ed4  4985              LDR      r1,|L1.4332|
000ed6  1ec9              SUBS     r1,r1,#3
000ed8  7008              STRB     r0,[r1,#0]
;;;934    																								work_0_1_mode_state = 2;
000eda  2002              MOVS     r0,#2
000edc  3908              SUBS     r1,r1,#8
000ede  7008              STRB     r0,[r1,#0]
;;;935    																								mode_time_count =0;	
000ee0  2000              MOVS     r0,#0
000ee2  310b              ADDS     r1,r1,#0xb
000ee4  6008              STR      r0,[r1,#0]  ; mode_time_count
;;;936    																								TIM3->CCR2 = 0;
000ee6  4982              LDR      r1,|L1.4336|
000ee8  8008              STRH     r0,[r1,#0]
;;;937    																							  {
;;;938    																									//display_graphic_speed_33x64(display_no_speed);
;;;939    																									LCD_buffer[1] |= 0x08;//led speed
000eea  4882              LDR      r0,|L1.4340|
000eec  7840              LDRB     r0,[r0,#1]  ; LCD_buffer
000eee  f0400008          ORR      r0,r0,#8
000ef2  4980              LDR      r1,|L1.4340|
000ef4  7048              STRB     r0,[r1,#1]
;;;940    																									LCD_buffer[2]  = 0x00;                                            
000ef6  f04f0000          MOV      r0,#0
000efa  7088              STRB     r0,[r1,#2]
;;;941                                                    }
;;;942    																								dc_motor_speed_count = 4;
000efc  f04f0004          MOV      r0,#4
000f00  497a              LDR      r1,|L1.4332|
000f02  f1010110          ADD      r1,r1,#0x10
000f06  7008              STRB     r0,[r1,#0]
;;;943    																								
;;;944    																								//if(display_chang_face_flag==0)
;;;945    																								{
;;;946    																									 //display_graphic_win_dir_39x64(display_out_dir);
;;;947    																									LCD_buffer[1] &= 0x08;
000f08  487a              LDR      r0,|L1.4340|
000f0a  7840              LDRB     r0,[r0,#1]  ; LCD_buffer
000f0c  f0000008          AND      r0,r0,#8
000f10  4978              LDR      r1,|L1.4340|
000f12  7048              STRB     r0,[r1,#1]
;;;948    																									LCD_buffer[1] |= 0x02;
000f14  4608              MOV      r0,r1
000f16  7840              LDRB     r0,[r0,#1]  ; LCD_buffer
000f18  f0400002          ORR      r0,r0,#2
000f1c  7048              STRB     r0,[r1,#1]
;;;949    																								}
;;;950    
;;;951    																								{
;;;952    																									ANION_DISABLE;
000f1e  f44f7080          MOV      r0,#0x100
000f22  4975              LDR      r1,|L1.4344|
000f24  6148              STR      r0,[r1,#0x14]
;;;953    																									anion_PW_state = 0;
000f26  f04f0000          MOV      r0,#0
000f2a  4970              LDR      r1,|L1.4332|
000f2c  f1a10113          SUB      r1,r1,#0x13
000f30  7008              STRB     r0,[r1,#0]
;;;954    																									LCD_buffer[7] &= 0x07;//display_graphic_tree_clear();
000f32  4870              LDR      r0,|L1.4340|
000f34  79c0              LDRB     r0,[r0,#7]  ; LCD_buffer
000f36  f0000007          AND      r0,r0,#7
000f3a  496e              LDR      r1,|L1.4340|
000f3c  71c8              STRB     r0,[r1,#7]
;;;955    																								}
;;;956    																								Refresh_LCD();
000f3e  f7fffffe          BL       Refresh_LCD
;;;957    																								step_motor_out();
000f42  f7fffffe          BL       step_motor_out
                  |L1.3910|
;;;958    																						 }
;;;959    																						 break;
000f46  e044              B        |L1.4050|
                  |L1.3912|
;;;960    																		case 2:							     
;;;961    																						 if(mode_time_count>=1||pollute_flag_last==1)
000f48  4868              LDR      r0,|L1.4332|
000f4a  6800              LDR      r0,[r0,#0]  ; mode_time_count
000f4c  2801              CMP      r0,#1
000f4e  da04              BGE      |L1.3930|
000f50  4866              LDR      r0,|L1.4332|
000f52  1ec0              SUBS     r0,r0,#3
000f54  7800              LDRB     r0,[r0,#0]  ; pollute_flag_last
000f56  2801              CMP      r0,#1
000f58  d13a              BNE      |L1.4048|
                  |L1.3930|
;;;962    																						 {
;;;963    																							  pollute_flag_last = 0;
000f5a  2000              MOVS     r0,#0
000f5c  4963              LDR      r1,|L1.4332|
000f5e  1ec9              SUBS     r1,r1,#3
000f60  7008              STRB     r0,[r1,#0]
;;;964    																								work_0_1_mode_state = 0;
000f62  3908              SUBS     r1,r1,#8
000f64  7008              STRB     r0,[r1,#0]
;;;965    																								mode_time_count =0;		
000f66  310b              ADDS     r1,r1,#0xb
000f68  6008              STR      r0,[r1,#0]  ; mode_time_count
;;;966    																							  start_motor();
000f6a  f7fffffe          BL       start_motor
;;;967    																								TIM3->CCR2 = DC_MOTOR_LOW_SPEED;//48;
000f6e  2003              MOVS     r0,#3
000f70  495f              LDR      r1,|L1.4336|
000f72  8008              STRH     r0,[r1,#0]
;;;968    																							  {
;;;969    																									//display_graphic_speed_33x64(display_low_speed);
;;;970    																									LCD_buffer[1] |= 0x08;//led speed
000f74  485f              LDR      r0,|L1.4340|
000f76  7840              LDRB     r0,[r0,#1]  ; LCD_buffer
000f78  f0400008          ORR      r0,r0,#8
000f7c  495d              LDR      r1,|L1.4340|
000f7e  7048              STRB     r0,[r1,#1]
;;;971    																									LCD_buffer[2]  = 0x08;                                            
000f80  f04f0008          MOV      r0,#8
000f84  7088              STRB     r0,[r1,#2]
;;;972                                                    }
;;;973    																								dc_motor_speed_count = 3;
000f86  f04f0003          MOV      r0,#3
000f8a  4958              LDR      r1,|L1.4332|
000f8c  f1010110          ADD      r1,r1,#0x10
000f90  7008              STRB     r0,[r1,#0]
;;;974    																								
;;;975    																								//if(display_chang_face_flag==0)
;;;976    																								{
;;;977    																									 LCD_buffer[1] &= 0x08;//display_graphic_win_dir_39x56(display_in_dir);
000f92  4858              LDR      r0,|L1.4340|
000f94  7840              LDRB     r0,[r0,#1]  ; LCD_buffer
000f96  f0000008          AND      r0,r0,#8
000f9a  4956              LDR      r1,|L1.4340|
000f9c  7048              STRB     r0,[r1,#1]
;;;978    																									 LCD_buffer[1] |= 0x03;																						
000f9e  4608              MOV      r0,r1
000fa0  7840              LDRB     r0,[r0,#1]  ; LCD_buffer
000fa2  f0400003          ORR      r0,r0,#3
000fa6  7048              STRB     r0,[r1,#1]
;;;979    																								}	
;;;980    
;;;981    																								{
;;;982    																									ANION_EN;
000fa8  f44f7080          MOV      r0,#0x100
000fac  4952              LDR      r1,|L1.4344|
000fae  6108              STR      r0,[r1,#0x10]
;;;983    																									anion_PW_state = 1;
000fb0  f04f0001          MOV      r0,#1
000fb4  494d              LDR      r1,|L1.4332|
000fb6  f1a10113          SUB      r1,r1,#0x13
000fba  7008              STRB     r0,[r1,#0]
;;;984    																									LCD_buffer[7] |= 0x08;//display_graphic_tree_32x64(display_tree);
000fbc  484d              LDR      r0,|L1.4340|
000fbe  79c0              LDRB     r0,[r0,#7]  ; LCD_buffer
000fc0  f0400008          ORR      r0,r0,#8
000fc4  494b              LDR      r1,|L1.4340|
000fc6  71c8              STRB     r0,[r1,#7]
;;;985    																								}
;;;986    
;;;987                                                    Refresh_LCD();
000fc8  f7fffffe          BL       Refresh_LCD
;;;988                                                    step_motor_in();																								
000fcc  f7fffffe          BL       step_motor_in
                  |L1.4048|
;;;989    																						 }										 
;;;990    																						 break;
000fd0  bf00              NOP      
                  |L1.4050|
000fd2  e071              B        |L1.4280|
                  |L1.4052|
;;;991    																		}
;;;992    																}
;;;993    											}// if(PM2_5_pollute_flag = 0&&PM2_5_pollute_flag = 0)
;;;994    											else 
;;;995    											{
;;;996    												if(shut_off_all_sensor==0)
000fd4  4849              LDR      r0,|L1.4348|
000fd6  7800              LDRB     r0,[r0,#0]  ; shut_off_all_sensor
000fd8  2800              CMP      r0,#0
000fda  d16d              BNE      |L1.4280|
;;;997    												{
;;;998    													pollute_flag_last = 1;
000fdc  2001              MOVS     r0,#1
000fde  4943              LDR      r1,|L1.4332|
000fe0  1ec9              SUBS     r1,r1,#3
000fe2  7008              STRB     r0,[r1,#0]
;;;999    													if(co2_pollute_flag==1)
000fe4  1ec8              SUBS     r0,r1,#3
000fe6  7800              LDRB     r0,[r0,#0]  ; co2_pollute_flag
000fe8  2801              CMP      r0,#1
000fea  d134              BNE      |L1.4182|
;;;1000   													{
;;;1001   														  
;;;1002   															
;;;1003   															 if(display_chang_face_flag==0)
000fec  1f08              SUBS     r0,r1,#4
000fee  7800              LDRB     r0,[r0,#0]  ; display_chang_face_flag
000ff0  b950              CBNZ     r0,|L1.4104|
;;;1004   															{
;;;1005   														     //display_graphic_win_dir_39x64(display_out_dir);
;;;1006   																 LCD_buffer[1] &= 0x08;
000ff2  4840              LDR      r0,|L1.4340|
000ff4  7840              LDRB     r0,[r0,#1]  ; LCD_buffer
000ff6  f0000008          AND      r0,r0,#8
000ffa  493e              LDR      r1,|L1.4340|
000ffc  7048              STRB     r0,[r1,#1]
;;;1007   																 LCD_buffer[1] |= 0x02;
000ffe  4608              MOV      r0,r1
001000  7840              LDRB     r0,[r0,#1]  ; LCD_buffer
001002  f0400002          ORR      r0,r0,#2
001006  7048              STRB     r0,[r1,#1]
                  |L1.4104|
;;;1008   															}
;;;1009   															
;;;1010   															if(work_mode==0)
001008  4838              LDR      r0,|L1.4332|
00100a  380a              SUBS     r0,r0,#0xa
00100c  7800              LDRB     r0,[r0,#0]  ; work_mode
00100e  b960              CBNZ     r0,|L1.4138|
;;;1011   															{
;;;1012   														      TIM3->CCR2 = DC_MOTOR_HIGH_SPEED;//48;
001010  2009              MOVS     r0,#9
001012  4937              LDR      r1,|L1.4336|
001014  8008              STRH     r0,[r1,#0]
;;;1013   																  //display_graphic_speed_33x64(display_high_speed);
;;;1014   																	LCD_buffer[1] |= 0x08;//led speed
001016  4837              LDR      r0,|L1.4340|
001018  7840              LDRB     r0,[r0,#1]  ; LCD_buffer
00101a  f0400008          ORR      r0,r0,#8
00101e  4935              LDR      r1,|L1.4340|
001020  7048              STRB     r0,[r1,#1]
;;;1015   																	LCD_buffer[2]  = 0x0E;
001022  f04f000e          MOV      r0,#0xe
001026  7088              STRB     r0,[r1,#2]
001028  e00b              B        |L1.4162|
                  |L1.4138|
;;;1016   															}
;;;1017   															else
;;;1018   															{
;;;1019   																  TIM3->CCR2 = DC_MOTOR_MID_SPEED;//48;
00102a  2004              MOVS     r0,#4
00102c  4930              LDR      r1,|L1.4336|
00102e  8008              STRH     r0,[r1,#0]
;;;1020   																  //display_graphic_speed_33x64(display_mid_speed);
;;;1021   																	LCD_buffer[1] |= 0x08;//led speed
001030  4830              LDR      r0,|L1.4340|
001032  7840              LDRB     r0,[r0,#1]  ; LCD_buffer
001034  f0400008          ORR      r0,r0,#8
001038  492e              LDR      r1,|L1.4340|
00103a  7048              STRB     r0,[r1,#1]
;;;1022   																	LCD_buffer[2]  = 0x0C;
00103c  f04f000c          MOV      r0,#0xc
001040  7088              STRB     r0,[r1,#2]
                  |L1.4162|
;;;1023                                 }
;;;1024   															if(step_motor_position!=2)
001042  482a              LDR      r0,|L1.4332|
001044  381d              SUBS     r0,r0,#0x1d
001046  7800              LDRB     r0,[r0,#0]  ; step_motor_position
001048  2802              CMP      r0,#2
00104a  d035              BEQ      |L1.4280|
;;;1025   															{
;;;1026   																Refresh_LCD();
00104c  f7fffffe          BL       Refresh_LCD
;;;1027   																step_motor_out() ;
001050  f7fffffe          BL       step_motor_out
                  |L1.4180|
001054  e030              B        |L1.4280|
                  |L1.4182|
;;;1028   															}
;;;1029   													}
;;;1030   													else
;;;1031   													{
;;;1032   														  
;;;1033   //														// if(display_chang_face_flag==0)
;;;1034   															{
;;;1035   																 //display_graphic_win_dir_39x56(display_in_dir);
;;;1036   																 LCD_buffer[1] &= 0x08;
001056  4827              LDR      r0,|L1.4340|
001058  7840              LDRB     r0,[r0,#1]  ; LCD_buffer
00105a  f0000008          AND      r0,r0,#8
00105e  4925              LDR      r1,|L1.4340|
001060  7048              STRB     r0,[r1,#1]
;;;1037   																 LCD_buffer[1] |= 0x03;
001062  4608              MOV      r0,r1
001064  7840              LDRB     r0,[r0,#1]  ; LCD_buffer
001066  f0400003          ORR      r0,r0,#3
00106a  7048              STRB     r0,[r1,#1]
;;;1038   														     
;;;1039   															}
;;;1040   															
;;;1041   															if(work_mode==0)
00106c  481f              LDR      r0,|L1.4332|
00106e  380a              SUBS     r0,r0,#0xa
001070  7800              LDRB     r0,[r0,#0]  ; work_mode
001072  b960              CBNZ     r0,|L1.4238|
;;;1042   															{
;;;1043   														      TIM3->CCR2 = DC_MOTOR_HIGH_SPEED;//48;
001074  2009              MOVS     r0,#9
001076  491e              LDR      r1,|L1.4336|
001078  8008              STRH     r0,[r1,#0]
;;;1044   																  //display_graphic_speed_33x64(display_high_speed);
;;;1045   																	LCD_buffer[1] |= 0x08;//led speed
00107a  481e              LDR      r0,|L1.4340|
00107c  7840              LDRB     r0,[r0,#1]  ; LCD_buffer
00107e  f0400008          ORR      r0,r0,#8
001082  491c              LDR      r1,|L1.4340|
001084  7048              STRB     r0,[r1,#1]
;;;1046   																	LCD_buffer[2]  = 0x0E;
001086  f04f000e          MOV      r0,#0xe
00108a  7088              STRB     r0,[r1,#2]
00108c  e00b              B        |L1.4262|
                  |L1.4238|
;;;1047   															}
;;;1048   															else
;;;1049   															{
;;;1050   																  TIM3->CCR2 = DC_MOTOR_MID_SPEED;//48;
00108e  2004              MOVS     r0,#4
001090  4917              LDR      r1,|L1.4336|
001092  8008              STRH     r0,[r1,#0]
;;;1051   																  //display_graphic_speed_33x64(display_mid_speed);
;;;1052   																	LCD_buffer[1] |= 0x08;//led speed
001094  4817              LDR      r0,|L1.4340|
001096  7840              LDRB     r0,[r0,#1]  ; LCD_buffer
001098  f0400008          ORR      r0,r0,#8
00109c  4915              LDR      r1,|L1.4340|
00109e  7048              STRB     r0,[r1,#1]
;;;1053   																	LCD_buffer[2]  = 0x0C;
0010a0  f04f000c          MOV      r0,#0xc
0010a4  7088              STRB     r0,[r1,#2]
                  |L1.4262|
;;;1054                                 }
;;;1055   															if(step_motor_position!=1)
0010a6  4811              LDR      r0,|L1.4332|
0010a8  381d              SUBS     r0,r0,#0x1d
0010aa  7800              LDRB     r0,[r0,#0]  ; step_motor_position
0010ac  2801              CMP      r0,#1
0010ae  d003              BEQ      |L1.4280|
;;;1056   															{
;;;1057   																	Refresh_LCD();
0010b0  f7fffffe          BL       Refresh_LCD
;;;1058   																	step_motor_in();
0010b4  f7fffffe          BL       step_motor_in
                  |L1.4280|
;;;1059   															}
;;;1060   															
;;;1061   													}
;;;1062                         }
;;;1063   										}//if(shut_off_all_sensor==0)
;;;1064   							}//if(mode_time_switch_flag)
;;;1065   							
;;;1066   							if(power_on_init_time_flag==1)
0010b8  480c              LDR      r0,|L1.4332|
0010ba  1f00              SUBS     r0,r0,#4
0010bc  7800              LDRB     r0,[r0,#0]  ; power_on_init_time_flag
0010be  2801              CMP      r0,#1
0010c0  d101              BNE      |L1.4294|
;;;1067   							{
;;;1068   								  flag_CO_PW = 1;
0010c2  490f              LDR      r1,|L1.4352|
0010c4  7008              STRB     r0,[r1,#0]
                  |L1.4294|
;;;1069                 }
;;;1070   	   }//if(all_power_state==1)
;;;1071   		/* 按键滤波和检测由后台systick中断服务程序实现，我们只需要调用bsp_GetKey读取键值即可。 */
;;;1072   		ucKeyCode = bsp_GetKey();	/* 读取键值, 无键按下时返回 KEY_NONE = 0 */
0010c6  f7fffffe          BL       bsp_GetKey
0010ca  4604              MOV      r4,r0
;;;1073   		#ifdef debug
;;;1074   // 		if(keys_show[keys_show_count]!=ucKeyCode&&ucKeyCode!=0)
;;;1075   // 		{
;;;1076   // 			if(keys_show_count<30)
;;;1077   // 			keys_show_count++;
;;;1078   // 			keys_show[keys_show_count] = ucKeyCode;//0xc6 0xc4 0xc0 0xc3  0x89 0x87
;;;1079   //     }
;;;1080   		#endif
;;;1081   		if (ucKeyCode != KEY_NONE)
0010cc  2c00              CMP      r4,#0
0010ce  d07e              BEQ      |L1.4558|
;;;1082   		{
;;;1083   			switch (ucKeyCode)
0010d0  2c87              CMP      r4,#0x87
0010d2  d07d              BEQ      |L1.4560|
0010d4  dc1b              BGT      |L1.4366|
0010d6  2c0a              CMP      r4,#0xa
0010d8  d07b              BEQ      |L1.4562|
0010da  dc13              BGT      |L1.4356|
0010dc  2c01              CMP      r4,#1
0010de  d023              BEQ      |L1.4392|
0010e0  2c04              CMP      r4,#4
0010e2  d077              BEQ      |L1.4564|
0010e4  2c07              CMP      r4,#7
                  |L1.4326|
0010e6  d176              BNE      |L1.4566|
0010e8  e248              B        |L1.5500|
0010ea  0000              DCW      0x0000
                  |L1.4332|
                          DCD      ||.data||+0x38
                  |L1.4336|
                          DCD      0x40000438
                  |L1.4340|
                          DCD      LCD_buffer
                  |L1.4344|
                          DCD      0x40011000
                  |L1.4348|
                          DCD      shut_off_all_sensor
                  |L1.4352|
                          DCD      flag_CO_PW
                  |L1.4356|
001104  2c0d              CMP      r4,#0xd
001106  d067              BEQ      |L1.4568|
001108  2c10              CMP      r4,#0x10
00110a  d1ec              BNE      |L1.4326|
00110c  e3fe              B        |L1.6412|
                  |L1.4366|
00110e  2cc3              CMP      r4,#0xc3
001110  d07e              BEQ      |L1.4624|
001112  dc04              BGT      |L1.4382|
001114  2c89              CMP      r4,#0x89
001116  d07c              BEQ      |L1.4626|
001118  2cc0              CMP      r4,#0xc0
00111a  d1e4              BNE      |L1.4326|
00111c  e22d              B        |L1.5498|
                  |L1.4382|
00111e  2cc4              CMP      r4,#0xc4
001120  d078              BEQ      |L1.4628|
001122  2cc6              CMP      r4,#0xc6
001124  d1df              BNE      |L1.4326|
;;;1084   			{
;;;1085   
;;;1086   				case IR_KEY_POWER:  //power 0xC6  
;;;1087   				case KEY_DOWN_K1:			/* 主板K1键按下 */	
001126  bf00              NOP      
                  |L1.4392|
;;;1088                               speak_one_time();					
001128  f7fffffe          BL       speak_one_time
;;;1089   				                    if(all_power_state==0x0000)
00112c  48ff              LDR      r0,|L1.5420|
00112e  7800              LDRB     r0,[r0,#0]  ; all_power_state
001130  2800              CMP      r0,#0
001132  d170              BNE      |L1.4630|
;;;1090   														{
;;;1091   																 bsp_LedOn(7);
001134  2007              MOVS     r0,#7
001136  f7fffffe          BL       bsp_LedOn
;;;1092                                    bsp_LedOn(8);															
00113a  2008              MOVS     r0,#8
00113c  f7fffffe          BL       bsp_LedOn
;;;1093   															   //clear_screen();
;;;1094   															
;;;1095   															   pollute_flag_last = 0;
001140  2000              MOVS     r0,#0
001142  49fa              LDR      r1,|L1.5420|
001144  1d49              ADDS     r1,r1,#5
001146  7008              STRB     r0,[r1,#0]
;;;1096   																 shut_off_all_sensor = 0;
001148  49f9              LDR      r1,|L1.5424|
00114a  7008              STRB     r0,[r1,#0]
;;;1097   																 //display_graphic_win_dir_39x64(display_in_dir);
;;;1098   															   LCD_buffer[1] &= 0x08;
00114c  48f9              LDR      r0,|L1.5428|
00114e  7840              LDRB     r0,[r0,#1]  ; LCD_buffer
001150  f0000008          AND      r0,r0,#8
001154  49f7              LDR      r1,|L1.5428|
001156  7048              STRB     r0,[r1,#1]
;;;1099   																 LCD_buffer[1] |= 0x03;
001158  4608              MOV      r0,r1
00115a  7840              LDRB     r0,[r0,#1]  ; LCD_buffer
00115c  f0400003          ORR      r0,r0,#3
001160  7048              STRB     r0,[r1,#1]
;;;1100   																 //display_graphic_33x64(display_A);
;;;1101   															   LCD_buffer[0]  = 0x09;
001162  2009              MOVS     r0,#9
001164  7008              STRB     r0,[r1,#0]
;;;1102   																 mode_time_switch_flag = 1;
001166  2001              MOVS     r0,#1
001168  49f0              LDR      r1,|L1.5420|
00116a  1f09              SUBS     r1,r1,#4
00116c  7008              STRB     r0,[r1,#0]
;;;1103   															   
;;;1104   															   //display_graphic_speed_33x64(display_mid_speed);
;;;1105   															   LCD_buffer[1] |= 0x08;//speed led
00116e  48f1              LDR      r0,|L1.5428|
001170  7840              LDRB     r0,[r0,#1]  ; LCD_buffer
001172  f0400008          ORR      r0,r0,#8
001176  49ef              LDR      r1,|L1.5428|
001178  7048              STRB     r0,[r1,#1]
;;;1106   															   LCD_buffer[2]  = 0x0C;//speed led
00117a  200c              MOVS     r0,#0xc
00117c  7088              STRB     r0,[r1,#2]
;;;1107   																 bsp_StartAutoTimer(1,60000);
00117e  f64e2160          MOV      r1,#0xea60
001182  2001              MOVS     r0,#1
001184  f7fffffe          BL       bsp_StartAutoTimer
;;;1108   																// flag_CO_PW = 1;
;;;1109   																	CO2_PW_EN;
001188  f44f4000          MOV      r0,#0x8000
00118c  49ea              LDR      r1,|L1.5432|
00118e  6008              STR      r0,[r1,#0]
;;;1110   															    co2_Green_Led();
001190  f7fffffe          BL       co2_Green_Led
;;;1111   																	flag_PM_PW = 1;	
001194  2001              MOVS     r0,#1
001196  49e9              LDR      r1,|L1.5436|
001198  7008              STRB     r0,[r1,#0]
;;;1112   															    LCD_buffer[6] |= 0x08;//speed led
00119a  48e6              LDR      r0,|L1.5428|
00119c  7980              LDRB     r0,[r0,#6]  ; LCD_buffer
00119e  f0400008          ORR      r0,r0,#8
0011a2  49e4              LDR      r1,|L1.5428|
0011a4  7188              STRB     r0,[r1,#6]
;;;1113   																  manul_flag = 0;
0011a6  2000              MOVS     r0,#0
0011a8  49e0              LDR      r1,|L1.5420|
0011aa  1e49              SUBS     r1,r1,#1
0011ac  7008              STRB     r0,[r1,#0]
;;;1114   															    work_mode = 0;
0011ae  1e49              SUBS     r1,r1,#1
0011b0  7008              STRB     r0,[r1,#0]
;;;1115   															  
;;;1116   															   timing_flag = 0;
0011b2  390a              SUBS     r1,r1,#0xa
0011b4  7008              STRB     r0,[r1,#0]
;;;1117   															   timing_state = 5;
0011b6  2005              MOVS     r0,#5
0011b8  3126              ADDS     r1,r1,#0x26
0011ba  7008              STRB     r0,[r1,#0]
;;;1118   																 //bsp_StartAutoTimer(0,60000);
;;;1119   															   //timing_time_min_value = 120;
;;;1120   																  //display_graphic_27x64_single(display_time_2);
;;;1121   																 LCD_buffer[3]  = 0x0F;//speed led
0011bc  200f              MOVS     r0,#0xf
0011be  49dd              LDR      r1,|L1.5428|
0011c0  70c8              STRB     r0,[r1,#3]
;;;1122   																 LCD_buffer[4]  = 0x0D;//speed led
0011c2  200d              MOVS     r0,#0xd
0011c4  7108              STRB     r0,[r1,#4]
;;;1123   																 LCD_buffer[5]  = 0x0F;//speed led
0011c6  200f              MOVS     r0,#0xf
0011c8  7148              STRB     r0,[r1,#5]
;;;1124   																 LCD_buffer[6] &= 0x08;//speed led
0011ca  4608              MOV      r0,r1
0011cc  e005              B        |L1.4570|
                  |L1.4558|
0011ce  e3f9              B        |L1.6596|
                  |L1.4560|
0011d0  e3f9              B        |L1.6598|
                  |L1.4562|
0011d2  e2a1              B        |L1.5912|
                  |L1.4564|
0011d4  e065              B        |L1.4770|
                  |L1.4566|
0011d6  e3f7              B        |L1.6600|
                  |L1.4568|
0011d8  e3da              B        |L1.6544|
                  |L1.4570|
0011da  7980              LDRB     r0,[r0,#6]  ; LCD_buffer
0011dc  f0000008          AND      r0,r0,#8
0011e0  7188              STRB     r0,[r1,#6]
;;;1125   																 LCD_buffer[6] |= 0x05;//speed led
0011e2  4608              MOV      r0,r1
0011e4  7980              LDRB     r0,[r0,#6]  ; LCD_buffer
0011e6  f0400005          ORR      r0,r0,#5
0011ea  7188              STRB     r0,[r1,#6]
;;;1126   																 
;;;1127   // 																 LCD_buffer[3]  = 0x00;//speed led
;;;1128   // 																 LCD_buffer[4]  = 0x08;//speed led
;;;1129   // 																 LCD_buffer[5]  = 0x0D;//speed led
;;;1130   // 																 LCD_buffer[6] &= 0x08;//speed led
;;;1131   // 																 LCD_buffer[6] |= 0x03;//speed led
;;;1132   																 clear_PM_rec();
0011ec  f7fffffe          BL       clear_PM_rec
;;;1133   																 flag_getCO2_value = 0;
0011f0  2000              MOVS     r0,#0
0011f2  49d3              LDR      r1,|L1.5440|
0011f4  7008              STRB     r0,[r1,#0]
;;;1134   	                               flag_getPM_value = 0;
0011f6  49d3              LDR      r1,|L1.5444|
0011f8  7008              STRB     r0,[r1,#0]
;;;1135   															
;;;1136   															    ANION_EN;
0011fa  f44f7080          MOV      r0,#0x100
0011fe  49d2              LDR      r1,|L1.5448|
001200  6108              STR      r0,[r1,#0x10]
;;;1137   																	anion_PW_state = 1;
001202  2001              MOVS     r0,#1
001204  49c9              LDR      r1,|L1.5420|
001206  390b              SUBS     r1,r1,#0xb
001208  7008              STRB     r0,[r1,#0]
;;;1138   																	//display_graphic_tree_32x64(display_tree);
;;;1139   		                             	LCD_buffer[7] |= 0x08;																		
00120a  48ca              LDR      r0,|L1.5428|
00120c  79c0              LDRB     r0,[r0,#7]  ; LCD_buffer
00120e  e003              B        |L1.4632|
                  |L1.4624|
001210  e283              B        |L1.5914|
                  |L1.4626|
001212  e3be              B        |L1.6546|
                  |L1.4628|
001214  e046              B        |L1.4772|
                  |L1.4630|
001216  e02f              B        |L1.4728|
                  |L1.4632|
001218  f0400008          ORR      r0,r0,#8
00121c  49c5              LDR      r1,|L1.5428|
00121e  71c8              STRB     r0,[r1,#7]
;;;1140                                    
;;;1141   																 bsp_StartTimer(3,30000);//led start question
001220  f2475130          MOV      r1,#0x7530
001224  2003              MOVS     r0,#3
001226  f7fffffe          BL       bsp_StartTimer
;;;1142   																 PM2_5_Green_Led();
00122a  f7fffffe          BL       PM2_5_Green_Led
;;;1143   																 co2_Green_Led();
00122e  f7fffffe          BL       co2_Green_Led
;;;1144   																 
;;;1145                                   Refresh_LCD();															 
001232  f7fffffe          BL       Refresh_LCD
;;;1146                                   step_motor_in();																	
001236  f7fffffe          BL       step_motor_in
;;;1147   																all_power_state = 1;
00123a  2001              MOVS     r0,#1
00123c  49bb              LDR      r1,|L1.5420|
00123e  7008              STRB     r0,[r1,#0]
;;;1148   																DC_MOTOR_EN;
001240  f44f40c0          MOV      r0,#0x6000
001244  f04f4180          MOV      r1,#0x40000000
001248  f8a10418          STRH     r0,[r1,#0x418]
00124c  2101              MOVS     r1,#1
00124e  48bf              LDR      r0,|L1.5452|
001250  f7fffffe          BL       TIM_CtrlPWMOutputs
001254  2101              MOVS     r1,#1
001256  48bd              LDR      r0,|L1.5452|
001258  f7fffffe          BL       TIM_Cmd
;;;1149   																start_motor();
00125c  f7fffffe          BL       start_motor
;;;1150   																 TIM3->CCR2 = DC_MOTOR_MID_SPEED;//48;
001260  2004              MOVS     r0,#4
001262  49bb              LDR      r1,|L1.5456|
001264  8008              STRH     r0,[r1,#0]
;;;1151   															   dc_motor_speed_count = 1;
001266  f04f0001          MOV      r0,#1
00126a  49b0              LDR      r1,|L1.5420|
00126c  f1010118          ADD      r1,r1,#0x18
001270  7008              STRB     r0,[r1,#0]
;;;1152   																flag_CO_PW = 1;
001272  49b8              LDR      r1,|L1.5460|
001274  7008              STRB     r0,[r1,#0]
001276  e013              B        |L1.4768|
                  |L1.4728|
;;;1153   																
;;;1154   														}
;;;1155   														else
;;;1156   														{
;;;1157   															  LCD_buffer[1] &= 0x08;
001278  48ae              LDR      r0,|L1.5428|
00127a  7840              LDRB     r0,[r0,#1]  ; LCD_buffer
00127c  f0000008          AND      r0,r0,#8
001280  49ac              LDR      r1,|L1.5428|
001282  7048              STRB     r0,[r1,#1]
;;;1158   																LCD_buffer[1] |= 0x03;
001284  4608              MOV      r0,r1
001286  7840              LDRB     r0,[r0,#1]  ; LCD_buffer
001288  f0400003          ORR      r0,r0,#3
00128c  7048              STRB     r0,[r1,#1]
;;;1159   															  Refresh_LCD();
00128e  f7fffffe          BL       Refresh_LCD
;;;1160   															  step_motor_in();
001292  f7fffffe          BL       step_motor_in
;;;1161   																power_off();
001296  f7fffffe          BL       power_off
;;;1162   																all_power_state = 0;
00129a  2000              MOVS     r0,#0
00129c  49a3              LDR      r1,|L1.5420|
00129e  7008              STRB     r0,[r1,#0]
                  |L1.4768|
;;;1163   																//DMA_ITConfig(DMA1_Channel6, DMA_IT_TC, ENABLE);
;;;1164   														}
;;;1165   														
;;;1166   				                  	break;
0012a0  e239              B        |L1.5910|
                  |L1.4770|
;;;1167   
;;;1168   				case KEY_DOWN_K2:			/* 主板K2键按下 */
;;;1169   				case IR_KEY_MODE://0xc4
0012a2  bf00              NOP      
                  |L1.4772|
;;;1170   					                  
;;;1171   														if(all_power_state==1&&step_motor_moving_flag==0&&last_recycle_shut_flag == 0)
0012a4  48a1              LDR      r0,|L1.5420|
0012a6  7800              LDRB     r0,[r0,#0]  ; all_power_state
0012a8  2801              CMP      r0,#1
                  |L1.4778|
0012aa  d17d              BNE      |L1.5032|
0012ac  489f              LDR      r0,|L1.5420|
0012ae  3814              SUBS     r0,r0,#0x14
0012b0  7800              LDRB     r0,[r0,#0]  ; step_motor_moving_flag
0012b2  2800              CMP      r0,#0
0012b4  d1f9              BNE      |L1.4778|
0012b6  489d              LDR      r0,|L1.5420|
0012b8  3813              SUBS     r0,r0,#0x13
0012ba  7800              LDRB     r0,[r0,#0]  ; last_recycle_shut_flag
0012bc  2800              CMP      r0,#0
0012be  d1f4              BNE      |L1.4778|
;;;1172   														{	
;;;1173   																	
;;;1174   //       															{
;;;1175   // 																			flag_PM_PW = 1;
;;;1176   //                                       LCD_buffer[6] |= 0x08;//speed led																			
;;;1177   // 																	    flag_CO_PW = 1;
;;;1178   // 																	    CO2_PW_EN;
;;;1179   // 																		}
;;;1180   															
;;;1181   															    speak_one_time();
0012c0  f7fffffe          BL       speak_one_time
;;;1182   															
;;;1183   															    if(work_mode<3)
0012c4  4899              LDR      r0,|L1.5420|
0012c6  1e80              SUBS     r0,r0,#2
0012c8  7800              LDRB     r0,[r0,#0]  ; work_mode
0012ca  2803              CMP      r0,#3
0012cc  da07              BGE      |L1.4830|
;;;1184   																	{
;;;1185   																		work_mode++;
0012ce  4897              LDR      r0,|L1.5420|
0012d0  1e80              SUBS     r0,r0,#2
0012d2  7800              LDRB     r0,[r0,#0]  ; work_mode
0012d4  1c40              ADDS     r0,r0,#1
0012d6  4995              LDR      r1,|L1.5420|
0012d8  1e89              SUBS     r1,r1,#2
0012da  7008              STRB     r0,[r1,#0]
0012dc  e003              B        |L1.4838|
                  |L1.4830|
;;;1186   																	}
;;;1187   																	else
;;;1188   																	{
;;;1189   																		work_mode = 0;
0012de  2000              MOVS     r0,#0
0012e0  4992              LDR      r1,|L1.5420|
0012e2  1e89              SUBS     r1,r1,#2
0012e4  7008              STRB     r0,[r1,#0]
                  |L1.4838|
;;;1190   																	}
;;;1191   																	
;;;1192   																	if(manul_flag==1)
0012e6  4891              LDR      r0,|L1.5420|
0012e8  1e40              SUBS     r0,r0,#1
0012ea  7800              LDRB     r0,[r0,#0]  ; manul_flag
0012ec  2801              CMP      r0,#1
0012ee  d107              BNE      |L1.4864|
;;;1193   																	{
;;;1194   																		manul_flag = 0;
0012f0  2000              MOVS     r0,#0
0012f2  498e              LDR      r1,|L1.5420|
0012f4  1e49              SUBS     r1,r1,#1
0012f6  7008              STRB     r0,[r1,#0]
;;;1195   																		work_mode = 0;
0012f8  1e49              SUBS     r1,r1,#1
0012fa  7008              STRB     r0,[r1,#0]
;;;1196   																		last_recycle_shut_flag = 0;
0012fc  3911              SUBS     r1,r1,#0x11
0012fe  7008              STRB     r0,[r1,#0]
                  |L1.4864|
;;;1197   																	}
;;;1198   																	switch(work_mode)
001300  488a              LDR      r0,|L1.5420|
001302  1e80              SUBS     r0,r0,#2
001304  7800              LDRB     r0,[r0,#0]  ; work_mode
001306  b130              CBZ      r0,|L1.4886|
001308  2801              CMP      r0,#1
00130a  d052              BEQ      |L1.5042|
00130c  2802              CMP      r0,#2
00130e  d07d              BEQ      |L1.5132|
001310  2803              CMP      r0,#3
001312  d17c              BNE      |L1.5134|
001314  e0ba              B        |L1.5260|
                  |L1.4886|
;;;1199   																	{
;;;1200   																		case 0:
;;;1201                                              bsp_LedOn(7);
001316  2007              MOVS     r0,#7
001318  f7fffffe          BL       bsp_LedOn
;;;1202                                              
;;;1203   //																		       if(display_chang_face_flag==0)
;;;1204   																					 {
;;;1205   																		         //display_graphic_win_dir_39x64(display_out_dir);
;;;1206   																						 //LCD_buffer[1] &= 0x08;
;;;1207   																             //LCD_buffer[1] |= 0x01;
;;;1208   																						 LCD_buffer[1] &= 0x08;//display_graphic_win_dir_39x56(display_in_dir);
00131c  4885              LDR      r0,|L1.5428|
00131e  7840              LDRB     r0,[r0,#1]  ; LCD_buffer
001320  f0000008          AND      r0,r0,#8
001324  4983              LDR      r1,|L1.5428|
001326  7048              STRB     r0,[r1,#1]
;;;1209                                                LCD_buffer[1] |= 0x03;	
001328  4608              MOV      r0,r1
00132a  7840              LDRB     r0,[r0,#1]  ; LCD_buffer
00132c  f0400003          ORR      r0,r0,#3
001330  7048              STRB     r0,[r1,#1]
;;;1210   																		         //display_graphic_33x64(display_A);
;;;1211   																						 LCD_buffer[0]  = 0x09;
001332  2009              MOVS     r0,#9
001334  7008              STRB     r0,[r1,#0]
;;;1212   																						 //display_graphic_speed_33x64(display_mid_speed);
;;;1213   																						 LCD_buffer[1] |= 0x08;//led speed
001336  4608              MOV      r0,r1
001338  7840              LDRB     r0,[r0,#1]  ; LCD_buffer
00133a  f0400008          ORR      r0,r0,#8
00133e  7048              STRB     r0,[r1,#1]
;;;1214   																						 LCD_buffer[2]  = 0x0C;
001340  200c              MOVS     r0,#0xc
001342  7088              STRB     r0,[r1,#2]
;;;1215   																						 
;;;1216   																					 }
;;;1217   																					 Refresh_LCD();
001344  f7fffffe          BL       Refresh_LCD
;;;1218   																					 step_motor_in();
001348  f7fffffe          BL       step_motor_in
;;;1219   																					 
;;;1220   																					 mode_time_switch_flag = 1;
00134c  2001              MOVS     r0,#1
00134e  4977              LDR      r1,|L1.5420|
001350  1f09              SUBS     r1,r1,#4
001352  7008              STRB     r0,[r1,#0]
;;;1221   																		       TIM3->CCR2 = DC_MOTOR_MID_SPEED;//48;
001354  2004              MOVS     r0,#4
001356  497e              LDR      r1,|L1.5456|
001358  8008              STRH     r0,[r1,#0]
;;;1222   																		       DC_MOTOR_EN;
00135a  f44f40c0          MOV      r0,#0x6000
00135e  f04f4180          MOV      r1,#0x40000000
001362  f8a10418          STRH     r0,[r1,#0x418]
001366  f04f0101          MOV      r1,#1
00136a  4878              LDR      r0,|L1.5452|
00136c  f7fffffe          BL       TIM_CtrlPWMOutputs
001370  2101              MOVS     r1,#1
001372  4876              LDR      r0,|L1.5452|
001374  f7fffffe          BL       TIM_Cmd
;;;1223   																		       dc_motor_speed_count = 2;
001378  2002              MOVS     r0,#2
00137a  496c              LDR      r1,|L1.5420|
00137c  3118              ADDS     r1,r1,#0x18
00137e  7008              STRB     r0,[r1,#0]
;;;1224   																		       
;;;1225   																		       bsp_StartAutoTimer(1,60000);
001380  f64e2160          MOV      r1,#0xea60
001384  2001              MOVS     r0,#1
001386  f7fffffe          BL       bsp_StartAutoTimer
;;;1226                                              //flag_CO_PW = 1;
;;;1227   																					 CO2_PW_EN;
00138a  f44f4000          MOV      r0,#0x8000
00138e  496a              LDR      r1,|L1.5432|
001390  6008              STR      r0,[r1,#0]
;;;1228   																					 flag_PM_PW = 1;																	
001392  f04f0001          MOV      r0,#1
001396  4969              LDR      r1,|L1.5436|
001398  7008              STRB     r0,[r1,#0]
;;;1229                                              manul_flag = 0;	       
00139a  f04f0000          MOV      r0,#0
00139e  4963              LDR      r1,|L1.5420|
0013a0  f1a10101          SUB      r1,r1,#1
0013a4  7008              STRB     r0,[r1,#0]
;;;1230   																					 led_off_flag = 0;															
0013a6  e000              B        |L1.5034|
                  |L1.5032|
0013a8  e0e6              B        |L1.5496|
                  |L1.5034|
0013aa  f101011d          ADD      r1,r1,#0x1d
0013ae  7008              STRB     r0,[r1,#0]
;;;1231   																					 break;
0013b0  e0d9              B        |L1.5478|
                  |L1.5042|
;;;1232   																		case 1:
;;;1233   																			     bsp_LedOn(7);
0013b2  2007              MOVS     r0,#7
0013b4  f7fffffe          BL       bsp_LedOn
;;;1234   																			     
;;;1235   //																		       if(display_chang_face_flag==0)
;;;1236   																					 {
;;;1237   																		          //display_graphic_win_dir_39x64(display_out_dir);
;;;1238   																						// LCD_buffer[1] &= 0x08;
;;;1239   																            // LCD_buffer[1] |= 0x01;
;;;1240   																						 LCD_buffer[1] &= 0x08;//display_graphic_win_dir_39x56(display_in_dir);
0013b8  485e              LDR      r0,|L1.5428|
0013ba  7840              LDRB     r0,[r0,#1]  ; LCD_buffer
0013bc  f0000008          AND      r0,r0,#8
0013c0  495c              LDR      r1,|L1.5428|
0013c2  7048              STRB     r0,[r1,#1]
;;;1241                                                LCD_buffer[1] |= 0x03;	
0013c4  4608              MOV      r0,r1
0013c6  7840              LDRB     r0,[r0,#1]  ; LCD_buffer
0013c8  f0400003          ORR      r0,r0,#3
0013cc  7048              STRB     r0,[r1,#1]
;;;1242   																						  //display_graphic_speed_33x64(display_low_speed);
;;;1243   																						 LCD_buffer[1] |= 0x08;//led speed
0013ce  4608              MOV      r0,r1
0013d0  7840              LDRB     r0,[r0,#1]  ; LCD_buffer
0013d2  f0400008          ORR      r0,r0,#8
0013d6  7048              STRB     r0,[r1,#1]
;;;1244   																						 LCD_buffer[2]  = 0x08;
0013d8  2008              MOVS     r0,#8
0013da  7088              STRB     r0,[r1,#2]
;;;1245   																						  //display_graphic_33x64(display_S);
;;;1246   																						 LCD_buffer[0] = 0x0A;
0013dc  200a              MOVS     r0,#0xa
0013de  7008              STRB     r0,[r1,#0]
;;;1247   																					 }
;;;1248   																					 Refresh_LCD();
0013e0  f7fffffe          BL       Refresh_LCD
;;;1249   																					 step_motor_in();//step_motor_out();
0013e4  f7fffffe          BL       step_motor_in
;;;1250   																					 
;;;1251   																					 
;;;1252   																					 mode_time_switch_flag = 1;
0013e8  2001              MOVS     r0,#1
0013ea  4950              LDR      r1,|L1.5420|
0013ec  1f09              SUBS     r1,r1,#4
0013ee  7008              STRB     r0,[r1,#0]
;;;1253   																		       TIM3->CCR2 = DC_MOTOR_LOW_SPEED;//22;
0013f0  2003              MOVS     r0,#3
0013f2  4957              LDR      r1,|L1.5456|
0013f4  8008              STRH     r0,[r1,#0]
;;;1254   																		       dc_motor_speed_count = 3;																		       
0013f6  494d              LDR      r1,|L1.5420|
0013f8  f1010118          ADD      r1,r1,#0x18
0013fc  7008              STRB     r0,[r1,#0]
;;;1255   																		       bsp_StartAutoTimer(1,60000);	
0013fe  f64e2160          MOV      r1,#0xea60
001402  f04f0001          MOV      r0,#1
001406  f7fffffe          BL       bsp_StartAutoTimer
;;;1256                                              //flag_CO_PW = 1;
;;;1257   																					 CO2_PW_EN;
00140a  e001              B        |L1.5136|
                  |L1.5132|
00140c  e01e              B        |L1.5196|
                  |L1.5134|
00140e  e048              B        |L1.5282|
                  |L1.5136|
001410  f44f4000          MOV      r0,#0x8000
001414  4950              LDR      r1,|L1.5464|
001416  f8c10810          STR      r0,[r1,#0x810]
;;;1258   																					 flag_PM_PW = 1;																					 
00141a  2001              MOVS     r0,#1
00141c  4947              LDR      r1,|L1.5436|
00141e  7008              STRB     r0,[r1,#0]
;;;1259   																		       manul_flag = 0;
001420  2000              MOVS     r0,#0
001422  4942              LDR      r1,|L1.5420|
001424  1e49              SUBS     r1,r1,#1
001426  7008              STRB     r0,[r1,#0]
;;;1260   																		       DC_MOTOR_EN;
001428  f44f40c0          MOV      r0,#0x6000
00142c  494b              LDR      r1,|L1.5468|
00142e  8008              STRH     r0,[r1,#0]
001430  f04f0101          MOV      r1,#1
001434  4845              LDR      r0,|L1.5452|
001436  f7fffffe          BL       TIM_CtrlPWMOutputs
00143a  2101              MOVS     r1,#1
00143c  4843              LDR      r0,|L1.5452|
00143e  f7fffffe          BL       TIM_Cmd
;;;1261   																		       led_off_flag = 0;
001442  2000              MOVS     r0,#0
001444  4939              LDR      r1,|L1.5420|
001446  311c              ADDS     r1,r1,#0x1c
001448  7008              STRB     r0,[r1,#0]
;;;1262   																			     																	
;;;1263   																					 break;
00144a  e08c              B        |L1.5478|
                  |L1.5196|
;;;1264   																		case 2:
;;;1265   																			     bsp_LedOff(7);
00144c  2007              MOVS     r0,#7
00144e  f7fffffe          BL       bsp_LedOff
;;;1266   																		       bsp_LedOff(1);
001452  2001              MOVS     r0,#1
001454  f7fffffe          BL       bsp_LedOff
;;;1267   																						 bsp_LedOff(2);
001458  2002              MOVS     r0,#2
00145a  f7fffffe          BL       bsp_LedOff
;;;1268   																						 bsp_LedOff(3);
00145e  2003              MOVS     r0,#3
001460  f7fffffe          BL       bsp_LedOff
;;;1269   																			       bsp_LedOff(4);
001464  2004              MOVS     r0,#4
001466  f7fffffe          BL       bsp_LedOff
;;;1270   																						 bsp_LedOff(5);
00146a  2005              MOVS     r0,#5
00146c  f7fffffe          BL       bsp_LedOff
;;;1271   																						 bsp_LedOff(6);
001470  2006              MOVS     r0,#6
001472  f7fffffe          BL       bsp_LedOff
;;;1272   																		         led_off_flag = 1;
001476  2001              MOVS     r0,#1
001478  492c              LDR      r1,|L1.5420|
00147a  311c              ADDS     r1,r1,#0x1c
00147c  7008              STRB     r0,[r1,#0]
;;;1273   																		         bsp_LedOff(5);
00147e  2005              MOVS     r0,#5
001480  f7fffffe          BL       bsp_LedOff
;;;1274   																						 bsp_LedOff(6);
001484  2006              MOVS     r0,#6
001486  f7fffffe          BL       bsp_LedOff
;;;1275   																					 break;
00148a  e06c              B        |L1.5478|
                  |L1.5260|
;;;1276   																		
;;;1277   																		case 3:
;;;1278   																			      bsp_LedOn(7);
00148c  2007              MOVS     r0,#7
00148e  f7fffffe          BL       bsp_LedOn
;;;1279                                               bsp_LedOn(8);
001492  2008              MOVS     r0,#8
001494  f7fffffe          BL       bsp_LedOn
;;;1280   																		        led_off_flag = 0;
001498  2000              MOVS     r0,#0
00149a  4924              LDR      r1,|L1.5420|
00149c  311c              ADDS     r1,r1,#0x1c
00149e  7008              STRB     r0,[r1,#0]
;;;1281   																					 break;
0014a0  e061              B        |L1.5478|
                  |L1.5282|
;;;1282   																		default:
;;;1283   																			     
;;;1284   																					 {
;;;1285   																		         //display_graphic_win_dir_39x64(display_out_dir);
;;;1286   																						 LCD_buffer[1] &= 0x08;
0014a2  4824              LDR      r0,|L1.5428|
0014a4  7840              LDRB     r0,[r0,#1]  ; LCD_buffer
0014a6  f0000008          AND      r0,r0,#8
0014aa  4922              LDR      r1,|L1.5428|
0014ac  7048              STRB     r0,[r1,#1]
;;;1287   																             LCD_buffer[1] |= 0x02;
0014ae  4608              MOV      r0,r1
0014b0  7840              LDRB     r0,[r0,#1]  ; LCD_buffer
0014b2  f0400002          ORR      r0,r0,#2
0014b6  7048              STRB     r0,[r1,#1]
;;;1288   																		         //display_graphic_33x64(display_A);
;;;1289   																						 LCD_buffer[0]  = 0x09;
0014b8  2009              MOVS     r0,#9
0014ba  7008              STRB     r0,[r1,#0]
;;;1290   																						 //display_graphic_speed_33x64(display_mid_speed);
;;;1291   																						 LCD_buffer[1] |= 0x08;//led speed
0014bc  4608              MOV      r0,r1
0014be  7840              LDRB     r0,[r0,#1]  ; LCD_buffer
0014c0  f0400008          ORR      r0,r0,#8
0014c4  7048              STRB     r0,[r1,#1]
;;;1292   																						 LCD_buffer[2]  = 0x0C;
0014c6  200c              MOVS     r0,#0xc
0014c8  7088              STRB     r0,[r1,#2]
;;;1293   																						 
;;;1294   																					 }
;;;1295   																					 Refresh_LCD();
0014ca  f7fffffe          BL       Refresh_LCD
;;;1296   																					 step_motor_out();
0014ce  f7fffffe          BL       step_motor_out
;;;1297   																					 
;;;1298   																					 
;;;1299   																					 mode_time_switch_flag = 1;
0014d2  2001              MOVS     r0,#1
0014d4  4915              LDR      r1,|L1.5420|
0014d6  1f09              SUBS     r1,r1,#4
0014d8  7008              STRB     r0,[r1,#0]
;;;1300   																		       TIM3->CCR2 = DC_MOTOR_MID_SPEED;//48;
0014da  2004              MOVS     r0,#4
0014dc  491c              LDR      r1,|L1.5456|
0014de  8008              STRH     r0,[r1,#0]
;;;1301   																		       DC_MOTOR_EN;
0014e0  f44f40c0          MOV      r0,#0x6000
0014e4  f04f4180          MOV      r1,#0x40000000
0014e8  f8a10418          STRH     r0,[r1,#0x418]
0014ec  f04f0101          MOV      r1,#1
0014f0  4816              LDR      r0,|L1.5452|
0014f2  f7fffffe          BL       TIM_CtrlPWMOutputs
0014f6  2101              MOVS     r1,#1
0014f8  4814              LDR      r0,|L1.5452|
0014fa  f7fffffe          BL       TIM_Cmd
;;;1302   																		       dc_motor_speed_count = 2;
0014fe  2002              MOVS     r0,#2
001500  490a              LDR      r1,|L1.5420|
001502  3118              ADDS     r1,r1,#0x18
001504  7008              STRB     r0,[r1,#0]
;;;1303   																		       led_off_flag = 0;
001506  2000              MOVS     r0,#0
001508  1d09              ADDS     r1,r1,#4
00150a  7008              STRB     r0,[r1,#0]
;;;1304   																		       bsp_StartAutoTimer(1,60000);
00150c  f64e2160          MOV      r1,#0xea60
001510  2001              MOVS     r0,#1
001512  f7fffffe          BL       bsp_StartAutoTimer
;;;1305                                              //flag_CO_PW = 1;
;;;1306   																					 CO2_PW_EN;
001516  f44f4000          MOV      r0,#0x8000
00151a  4907              LDR      r1,|L1.5432|
00151c  6008              STR      r0,[r1,#0]
;;;1307   																					 flag_PM_PW = 1;																	
00151e  f04f0001          MOV      r0,#1
001522  4906              LDR      r1,|L1.5436|
001524  7008              STRB     r0,[r1,#0]
;;;1308                                              manul_flag = 0;
001526  f04f0000          MOV      r0,#0
00152a  e019              B        |L1.5472|
                  |L1.5420|
                          DCD      ||.data||+0x30
                  |L1.5424|
                          DCD      shut_off_all_sensor
                  |L1.5428|
                          DCD      LCD_buffer
                  |L1.5432|
                          DCD      0x40010810
                  |L1.5436|
                          DCD      flag_PM_PW
                  |L1.5440|
                          DCD      flag_getCO2_value
                  |L1.5444|
                          DCD      flag_getPM_value
                  |L1.5448|
                          DCD      0x40011000
                  |L1.5452|
                          DCD      0x40000400
                  |L1.5456|
                          DCD      0x40000438
                  |L1.5460|
                          DCD      flag_CO_PW
                  |L1.5464|
                          DCD      0x40010000
                  |L1.5468|
                          DCD      0x40000418
                  |L1.5472|
001560  49ff              LDR      r1,|L1.6496|
001562  7008              STRB     r0,[r1,#0]
;;;1309   																					 break;
001564  bf00              NOP      
                  |L1.5478|
001566  bf00              NOP                            ;1231
;;;1310   																	}
;;;1311   																	work_0_1_mode_state = 0;
001568  2000              MOVS     r0,#0
00156a  49fd              LDR      r1,|L1.6496|
00156c  1e89              SUBS     r1,r1,#2
00156e  7008              STRB     r0,[r1,#0]
;;;1312   												          mode_time_count =0;	
001570  310b              ADDS     r1,r1,#0xb
001572  6008              STR      r0,[r1,#0]  ; mode_time_count
;;;1313   																	shut_off_all_sensor = 0;
001574  49fb              LDR      r1,|L1.6500|
001576  7008              STRB     r0,[r1,#0]
                  |L1.5496|
;;;1314   														}
;;;1315   														//display_string_5x8(1,1,1,"kk");
;;;1316                               
;;;1317   														break;
001578  e2f7              B        |L1.7018|
                  |L1.5498|
;;;1318   				case IR_KEY_SPEED://dc motor speed
;;;1319           case KEY_DOWN_K3:				
00157a  bf00              NOP      
                  |L1.5500|
;;;1320   					                  
;;;1321                               if(all_power_state==1&&shut_off_all_sensor == 0)
00157c  48f8              LDR      r0,|L1.6496|
00157e  1c40              ADDS     r0,r0,#1
001580  7800              LDRB     r0,[r0,#0]  ; all_power_state
001582  2801              CMP      r0,#1
                  |L1.5508|
001584  d173              BNE      |L1.5742|
001586  48f7              LDR      r0,|L1.6500|
001588  7800              LDRB     r0,[r0,#0]  ; shut_off_all_sensor
00158a  2800              CMP      r0,#0
00158c  d1fa              BNE      |L1.5508|
;;;1322   														{				
;;;1323   															    speak_one_time();
00158e  f7fffffe          BL       speak_one_time
;;;1324   															
;;;1325   															    bsp_LedOn(7);
001592  2007              MOVS     r0,#7
001594  f7fffffe          BL       bsp_LedOn
;;;1326   															    //if(speed_count_direct==0)
;;;1327                                     if(dc_motor_speed_count<3&&speed_count_direct==0)
001598  48f1              LDR      r0,|L1.6496|
00159a  3019              ADDS     r0,r0,#0x19
00159c  7800              LDRB     r0,[r0,#0]  ; dc_motor_speed_count
00159e  2803              CMP      r0,#3
0015a0  da0e              BGE      |L1.5568|
0015a2  48ef              LDR      r0,|L1.6496|
0015a4  3815              SUBS     r0,r0,#0x15
0015a6  7800              LDRB     r0,[r0,#0]  ; speed_count_direct
0015a8  b950              CBNZ     r0,|L1.5568|
;;;1328   																	{	
;;;1329                                       speed_count_direct = 0;																		
0015aa  2000              MOVS     r0,#0
0015ac  49ec              LDR      r1,|L1.6496|
0015ae  3915              SUBS     r1,r1,#0x15
0015b0  7008              STRB     r0,[r1,#0]
;;;1330   																		dc_motor_speed_count++;
0015b2  f101002e          ADD      r0,r1,#0x2e
0015b6  7800              LDRB     r0,[r0,#0]  ; dc_motor_speed_count
0015b8  1c40              ADDS     r0,r0,#1
0015ba  312e              ADDS     r1,r1,#0x2e
0015bc  7008              STRB     r0,[r1,#0]
0015be  e00f              B        |L1.5600|
                  |L1.5568|
;;;1331   																	}
;;;1332   																	else
;;;1333   																	{
;;;1334   																		
;;;1335   																		speed_count_direct = 1;
0015c0  2001              MOVS     r0,#1
0015c2  49e7              LDR      r1,|L1.6496|
0015c4  3915              SUBS     r1,r1,#0x15
0015c6  7008              STRB     r0,[r1,#0]
;;;1336   																		dc_motor_speed_count--;
0015c8  f101002e          ADD      r0,r1,#0x2e
0015cc  7800              LDRB     r0,[r0,#0]  ; dc_motor_speed_count
0015ce  1e40              SUBS     r0,r0,#1
0015d0  312e              ADDS     r1,r1,#0x2e
0015d2  7008              STRB     r0,[r1,#0]
;;;1337   																		if(dc_motor_speed_count==0)
0015d4  4608              MOV      r0,r1
0015d6  7800              LDRB     r0,[r0,#0]  ; dc_motor_speed_count
0015d8  b910              CBNZ     r0,|L1.5600|
;;;1338   																		{
;;;1339   																			speed_count_direct = 0;
0015da  2000              MOVS     r0,#0
0015dc  392e              SUBS     r1,r1,#0x2e
0015de  7008              STRB     r0,[r1,#0]
                  |L1.5600|
;;;1340                                       }
;;;1341   																	}	
;;;1342                                     if(manul_flag==0)	
0015e0  48df              LDR      r0,|L1.6496|
0015e2  7800              LDRB     r0,[r0,#0]  ; manul_flag
0015e4  b948              CBNZ     r0,|L1.5626|
;;;1343   																	{
;;;1344   																		dc_motor_speed_count = 0;
0015e6  2000              MOVS     r0,#0
0015e8  49dd              LDR      r1,|L1.6496|
0015ea  3119              ADDS     r1,r1,#0x19
0015ec  7008              STRB     r0,[r1,#0]
;;;1345   																		air_dir_recycle_count = 0;//recycle need clear beacase shutdown display is 2
0015ee  1c49              ADDS     r1,r1,#1
0015f0  7008              STRB     r0,[r1,#0]
;;;1346   																		led_off_flag = 0;
0015f2  1cc9              ADDS     r1,r1,#3
0015f4  7008              STRB     r0,[r1,#0]
;;;1347   																		speed_count_direct = 0;
0015f6  3932              SUBS     r1,r1,#0x32
0015f8  7008              STRB     r0,[r1,#0]
                  |L1.5626|
;;;1348   																	}																		
;;;1349   																	/***************/
;;;1350   																	switch (dc_motor_speed_count)
0015fa  48d9              LDR      r0,|L1.6496|
0015fc  3019              ADDS     r0,r0,#0x19
0015fe  7800              LDRB     r0,[r0,#0]  ; dc_motor_speed_count
001600  2805              CMP      r0,#5
001602  d266              BCS      |L1.5842|
001604  e8dff000          TBB      [pc,r0]
001608  41342603          DCB      0x41,0x34,0x26,0x03
00160c  4e00              DCB      0x4e,0x00
;;;1351   																	{
;;;1352   																			case 3: 
;;;1353   																				      if(speed_count_direct == 0 )
00160e  48d4              LDR      r0,|L1.6496|
001610  3815              SUBS     r0,r0,#0x15
001612  7800              LDRB     r0,[r0,#0]  ; speed_count_direct
001614  b918              CBNZ     r0,|L1.5662|
;;;1354   																							{
;;;1355   																								speed_count_direct = 1;
001616  2001              MOVS     r0,#1
001618  49d1              LDR      r1,|L1.6496|
00161a  3915              SUBS     r1,r1,#0x15
00161c  7008              STRB     r0,[r1,#0]
                  |L1.5662|
;;;1356                                                 }
;;;1357   																							TIM3->CCR2 = DC_MOTOR_LOW_SPEED;//22
00161e  2003              MOVS     r0,#3
001620  49d1              LDR      r1,|L1.6504|
001622  8008              STRH     r0,[r1,#0]
;;;1358   																			        DC_MOTOR_EN;
001624  f44f40c0          MOV      r0,#0x6000
001628  f04f4180          MOV      r1,#0x40000000
00162c  f8a10418          STRH     r0,[r1,#0x418]
001630  f04f0101          MOV      r1,#1
001634  48cd              LDR      r0,|L1.6508|
001636  f7fffffe          BL       TIM_CtrlPWMOutputs
00163a  2101              MOVS     r1,#1
00163c  48cb              LDR      r0,|L1.6508|
00163e  f7fffffe          BL       TIM_Cmd
;;;1359   																							//display_graphic_speed_33x64(display_low_speed);
;;;1360   																			        LCD_buffer[1] |= 0x08;//led speed
001642  48cb              LDR      r0,|L1.6512|
001644  7840              LDRB     r0,[r0,#1]  ; LCD_buffer
001646  f0400008          ORR      r0,r0,#8
00164a  49c9              LDR      r1,|L1.6512|
00164c  7048              STRB     r0,[r1,#1]
;;;1361   																						  LCD_buffer[2]  = 0x08;
00164e  2008              MOVS     r0,#8
001650  7088              STRB     r0,[r1,#2]
;;;1362   																							break;
001652  e055              B        |L1.5888|
;;;1363   																			case 2: 
;;;1364   																							TIM3->CCR2 = DC_MOTOR_MID_SPEED;//48;
001654  2004              MOVS     r0,#4
001656  49c4              LDR      r1,|L1.6504|
001658  8008              STRH     r0,[r1,#0]
;;;1365   																							//display_graphic_speed_33x64(display_mid_speed);
;;;1366   																			        LCD_buffer[1] |= 0x08;//led speed
00165a  48c5              LDR      r0,|L1.6512|
00165c  7840              LDRB     r0,[r0,#1]  ; LCD_buffer
00165e  f0400008          ORR      r0,r0,#8
001662  49c3              LDR      r1,|L1.6512|
001664  7048              STRB     r0,[r1,#1]
;;;1367   																						  LCD_buffer[2]  = 0x0C;
001666  f04f000c          MOV      r0,#0xc
00166a  7088              STRB     r0,[r1,#2]
;;;1368   																							break;
00166c  e048              B        |L1.5888|
                  |L1.5742|
00166e  e052              B        |L1.5910|
;;;1369   																			case 1: 
;;;1370   																							TIM3->CCR2 = DC_MOTOR_HIGH_SPEED;//78;
001670  2009              MOVS     r0,#9
001672  49bd              LDR      r1,|L1.6504|
001674  8008              STRH     r0,[r1,#0]
;;;1371   																							//display_graphic_speed_33x64(display_high_speed);
;;;1372   																			        LCD_buffer[1] |= 0x08;//led speed
001676  48be              LDR      r0,|L1.6512|
001678  7840              LDRB     r0,[r0,#1]  ; LCD_buffer
00167a  f0400008          ORR      r0,r0,#8
00167e  49bc              LDR      r1,|L1.6512|
001680  7048              STRB     r0,[r1,#1]
;;;1373   																						  LCD_buffer[2]  = 0x0E;
001682  f04f000e          MOV      r0,#0xe
001686  7088              STRB     r0,[r1,#2]
;;;1374   																							break;
001688  e03a              B        |L1.5888|
;;;1375   																			case 0: 
;;;1376   																							TIM3->CCR2 = DC_MOTOR_STRONG_SPEED;//120;
00168a  20f9              MOVS     r0,#0xf9
00168c  49b6              LDR      r1,|L1.6504|
00168e  8008              STRH     r0,[r1,#0]
;;;1377   																							//display_graphic_speed_33x64(display_strong_speed);
;;;1378   																			        LCD_buffer[1] |= 0x08;//led speed
001690  48b7              LDR      r0,|L1.6512|
001692  7840              LDRB     r0,[r0,#1]  ; LCD_buffer
001694  f0400008          ORR      r0,r0,#8
001698  49b5              LDR      r1,|L1.6512|
00169a  7048              STRB     r0,[r1,#1]
;;;1379   																						  LCD_buffer[2]  = 0x0F;
00169c  f04f000f          MOV      r0,#0xf
0016a0  7088              STRB     r0,[r1,#2]
;;;1380   																							break;
0016a2  e02d              B        |L1.5888|
;;;1381   																			case 4: 
;;;1382   																							TIM3->CCR2 = 0;
0016a4  2000              MOVS     r0,#0
0016a6  49b0              LDR      r1,|L1.6504|
0016a8  8008              STRH     r0,[r1,#0]
;;;1383   																							DC_MOTOR_DISABLE;
0016aa  f44f4080          MOV      r0,#0x4000
0016ae  f04f4180          MOV      r1,#0x40000000
0016b2  f8a10418          STRH     r0,[r1,#0x418]
0016b6  f04f0100          MOV      r1,#0
0016ba  48ac              LDR      r0,|L1.6508|
0016bc  f7fffffe          BL       TIM_Cmd
;;;1384   																							//display_graphic_speed_33x64(display_no_speed);
;;;1385   																			        LCD_buffer[1] &= 0x07;//led speed
0016c0  48ab              LDR      r0,|L1.6512|
0016c2  7840              LDRB     r0,[r0,#1]  ; LCD_buffer
0016c4  f0000007          AND      r0,r0,#7
0016c8  49a9              LDR      r1,|L1.6512|
0016ca  7048              STRB     r0,[r1,#1]
;;;1386   																						  LCD_buffer[2]  = 0x00;
0016cc  2000              MOVS     r0,#0
0016ce  7088              STRB     r0,[r1,#2]
;;;1387   																							break;
0016d0  e016              B        |L1.5888|
                  |L1.5842|
;;;1388   																			default:
;;;1389   																							TIM3->CCR2 = 0;
0016d2  2000              MOVS     r0,#0
0016d4  49a4              LDR      r1,|L1.6504|
0016d6  8008              STRH     r0,[r1,#0]
;;;1390   																							DC_MOTOR_DISABLE;
0016d8  f44f4080          MOV      r0,#0x4000
0016dc  f04f4180          MOV      r1,#0x40000000
0016e0  f8a10418          STRH     r0,[r1,#0x418]
0016e4  f04f0100          MOV      r1,#0
0016e8  48a0              LDR      r0,|L1.6508|
0016ea  f7fffffe          BL       TIM_Cmd
;;;1391   																							//display_graphic_speed_33x64(display_no_speed);
;;;1392   																			        LCD_buffer[1] |= 0x08;//led speed
0016ee  48a0              LDR      r0,|L1.6512|
0016f0  7840              LDRB     r0,[r0,#1]  ; LCD_buffer
0016f2  f0400008          ORR      r0,r0,#8
0016f6  499e              LDR      r1,|L1.6512|
0016f8  7048              STRB     r0,[r1,#1]
;;;1393   																						  LCD_buffer[2]  = 0x00;
0016fa  2000              MOVS     r0,#0
0016fc  7088              STRB     r0,[r1,#2]
;;;1394   																							break;
0016fe  bf00              NOP      
                  |L1.5888|
001700  bf00              NOP                            ;1362
;;;1395   																	}
;;;1396   																	
;;;1397   																	 manul_flag = 1;
001702  2001              MOVS     r0,#1
001704  4996              LDR      r1,|L1.6496|
001706  7008              STRB     r0,[r1,#0]
;;;1398   																	 LCD_buffer[0]  = 0x0C;//display manual
001708  200c              MOVS     r0,#0xc
00170a  4999              LDR      r1,|L1.6512|
00170c  7008              STRB     r0,[r1,#0]
;;;1399   																	 mode_time_switch_flag = 0;
00170e  2000              MOVS     r0,#0
001710  4993              LDR      r1,|L1.6496|
001712  1ec9              SUBS     r1,r1,#3
001714  7008              STRB     r0,[r1,#0]
                  |L1.5910|
;;;1400   													  }
;;;1401   														
;;;1402   					                  break;
001716  e228              B        |L1.7018|
                  |L1.5912|
;;;1403   															
;;;1404   				case KEY_DOWN_K4:	//air detect power
;;;1405           case IR_KEY_RECYCLE:			
001718  bf00              NOP      
                  |L1.5914|
;;;1406   					                  
;;;1407   					                  if(all_power_state==1&&manul_flag==1&&step_motor_moving_flag==0)
00171a  4891              LDR      r0,|L1.6496|
00171c  1c40              ADDS     r0,r0,#1
00171e  7800              LDRB     r0,[r0,#0]  ; all_power_state
001720  2801              CMP      r0,#1
                  |L1.5922|
001722  d17e              BNE      |L1.6178|
001724  488e              LDR      r0,|L1.6496|
001726  7800              LDRB     r0,[r0,#0]  ; manul_flag
001728  2801              CMP      r0,#1
00172a  d1fa              BNE      |L1.5922|
00172c  488c              LDR      r0,|L1.6496|
00172e  3813              SUBS     r0,r0,#0x13
001730  7800              LDRB     r0,[r0,#0]  ; step_motor_moving_flag
001732  2800              CMP      r0,#0
001734  d1f5              BNE      |L1.5922|
;;;1408   														{	
;;;1409   															    speak_one_time();
001736  f7fffffe          BL       speak_one_time
;;;1410   															    if(air_dir_recycle_count<2)
00173a  4889              LDR      r0,|L1.6496|
00173c  301a              ADDS     r0,r0,#0x1a
00173e  7800              LDRB     r0,[r0,#0]  ; air_dir_recycle_count
001740  2802              CMP      r0,#2
001742  da07              BGE      |L1.5972|
;;;1411   																	{
;;;1412   																		air_dir_recycle_count++;
001744  4886              LDR      r0,|L1.6496|
001746  301a              ADDS     r0,r0,#0x1a
001748  7800              LDRB     r0,[r0,#0]  ; air_dir_recycle_count
00174a  1c40              ADDS     r0,r0,#1
00174c  4984              LDR      r1,|L1.6496|
00174e  311a              ADDS     r1,r1,#0x1a
001750  7008              STRB     r0,[r1,#0]
001752  e003              B        |L1.5980|
                  |L1.5972|
;;;1413   																	}
;;;1414   																	else
;;;1415   																	{
;;;1416   																		air_dir_recycle_count = 0;
001754  2000              MOVS     r0,#0
001756  4982              LDR      r1,|L1.6496|
001758  311a              ADDS     r1,r1,#0x1a
00175a  7008              STRB     r0,[r1,#0]
                  |L1.5980|
;;;1417   																	}	
;;;1418   																	last_dc_motor_speed_count = dc_motor_speed_count;													    																	
00175c  4880              LDR      r0,|L1.6496|
00175e  3019              ADDS     r0,r0,#0x19
001760  7800              LDRB     r0,[r0,#0]  ; dc_motor_speed_count
001762  497f              LDR      r1,|L1.6496|
001764  311c              ADDS     r1,r1,#0x1c
001766  7008              STRB     r0,[r1,#0]
;;;1419   																	switch(air_dir_recycle_count)
001768  1e88              SUBS     r0,r1,#2
00176a  7800              LDRB     r0,[r0,#0]  ; air_dir_recycle_count
00176c  b130              CBZ      r0,|L1.6012|
00176e  2801              CMP      r0,#1
001770  d05e              BEQ      |L1.6192|
001772  2802              CMP      r0,#2
001774  d071              BEQ      |L1.6234|
001776  2803              CMP      r0,#3
001778  d16e              BNE      |L1.6232|
00177a  e0cb              B        |L1.6420|
                  |L1.6012|
;;;1420   																	{
;;;1421   																			case 0:
;;;1422   																				     
;;;1423   																				     if(last_recycle_shut_flag==1)
00177c  4878              LDR      r0,|L1.6496|
00177e  3812              SUBS     r0,r0,#0x12
001780  7800              LDRB     r0,[r0,#0]  ; last_recycle_shut_flag
001782  2801              CMP      r0,#1
001784  d11e              BNE      |L1.6084|
;;;1424   																						 {
;;;1425   																							 last_recycle_shut_flag = 0;
001786  2000              MOVS     r0,#0
001788  4975              LDR      r1,|L1.6496|
00178a  3912              SUBS     r1,r1,#0x12
00178c  7008              STRB     r0,[r1,#0]
;;;1426   																							 
;;;1427   																							 ANION_EN;
00178e  f44f7080          MOV      r0,#0x100
001792  4978              LDR      r1,|L1.6516|
001794  6108              STR      r0,[r1,#0x10]
;;;1428   																							 anion_PW_state = 1;
001796  2001              MOVS     r0,#1
001798  4971              LDR      r1,|L1.6496|
00179a  390a              SUBS     r1,r1,#0xa
00179c  7008              STRB     r0,[r1,#0]
;;;1429   																							 LCD_buffer[7] |= 0x08;//display_graphic_tree_32x64(display_tree);
00179e  4874              LDR      r0,|L1.6512|
0017a0  79c0              LDRB     r0,[r0,#7]  ; LCD_buffer
0017a2  f0400008          ORR      r0,r0,#8
0017a6  4972              LDR      r1,|L1.6512|
0017a8  71c8              STRB     r0,[r1,#7]
;;;1430   																							 
;;;1431   																							 start_delay_30_flag = 0;
0017aa  2000              MOVS     r0,#0
0017ac  496c              LDR      r1,|L1.6496|
0017ae  310d              ADDS     r1,r1,#0xd
0017b0  7008              STRB     r0,[r1,#0]
;;;1432   																							 bsp_StartTimer(3,30000);//led start question
0017b2  f2475130          MOV      r1,#0x7530
0017b6  2003              MOVS     r0,#3
0017b8  f7fffffe          BL       bsp_StartTimer
;;;1433   																							 PM2_5_Green_Led();
0017bc  f7fffffe          BL       PM2_5_Green_Led
;;;1434   																							 co2_Green_Led();
0017c0  f7fffffe          BL       co2_Green_Led
                  |L1.6084|
;;;1435   																							 
;;;1436                                                }
;;;1437   																			       shut_off_all_sensor = 0;
0017c4  2000              MOVS     r0,#0
0017c6  4967              LDR      r1,|L1.6500|
0017c8  7008              STRB     r0,[r1,#0]
;;;1438   																					   PM2_5_Green_Led();
0017ca  f7fffffe          BL       PM2_5_Green_Led
;;;1439   																						 flag_PM_PW = 1;
0017ce  2001              MOVS     r0,#1
0017d0  4969              LDR      r1,|L1.6520|
0017d2  7008              STRB     r0,[r1,#0]
;;;1440   																						 //LCD_buffer[6] |= 0x08;//speed led
;;;1441   																						 flag_CO_PW = 1;
0017d4  4969              LDR      r1,|L1.6524|
0017d6  7008              STRB     r0,[r1,#0]
;;;1442   																			       //power_on_init_time_flag = 0;
;;;1443   																			       co2_Green_Led();
0017d8  f7fffffe          BL       co2_Green_Led
;;;1444   																						 CO2_PW_EN;
0017dc  f44f4000          MOV      r0,#0x8000
0017e0  4967              LDR      r1,|L1.6528|
0017e2  6008              STR      r0,[r1,#0]
;;;1445   																			       
;;;1446   																						 {
;;;1447   																							 LCD_buffer[1] &= 0x08;//display_graphic_win_dir_39x56(display_in_dir);
0017e4  4862              LDR      r0,|L1.6512|
0017e6  7840              LDRB     r0,[r0,#1]  ; LCD_buffer
0017e8  f0000008          AND      r0,r0,#8
0017ec  4960              LDR      r1,|L1.6512|
0017ee  7048              STRB     r0,[r1,#1]
;;;1448   																							 LCD_buffer[1] |= 0x03;
0017f0  4608              MOV      r0,r1
0017f2  7840              LDRB     r0,[r0,#1]  ; LCD_buffer
0017f4  f0400003          ORR      r0,r0,#3
0017f8  7048              STRB     r0,[r1,#1]
;;;1449   																						 }
;;;1450   																						 //display_graphic_speed_33x64(display_mid_speed);
;;;1451   																						 LCD_buffer[1] |= 0x08;//led speed
0017fa  4608              MOV      r0,r1
0017fc  7840              LDRB     r0,[r0,#1]  ; LCD_buffer
0017fe  f0400008          ORR      r0,r0,#8
001802  7048              STRB     r0,[r1,#1]
;;;1452   																						 LCD_buffer[2]  = 0x0C;
001804  f04f000c          MOV      r0,#0xc
001808  7088              STRB     r0,[r1,#2]
;;;1453   																						 dc_motor_speed_count = 2;
00180a  f04f0002          MOV      r0,#2
00180e  4954              LDR      r1,|L1.6496|
001810  f1010119          ADD      r1,r1,#0x19
001814  7008              STRB     r0,[r1,#0]
;;;1454   																						 Refresh_LCD();
001816  f7fffffe          BL       Refresh_LCD
;;;1455   																						 start_motor();
00181a  f7fffffe          BL       start_motor
;;;1456   																						 TIM3->CCR2 = DC_MOTOR_MID_SPEED;//48;
00181e  2004              MOVS     r0,#4
001820  e000              B        |L1.6180|
                  |L1.6178|
001822  e0b4              B        |L1.6542|
                  |L1.6180|
001824  0701              LSLS     r1,r0,#28
001826  f8a10438          STRH     r0,[r1,#0x438]
;;;1457   																							
;;;1458   																						 step_motor_in();
00182a  f7fffffe          BL       step_motor_in
;;;1459   																						 
;;;1460   																						
;;;1461   																						 break;
00182e  e096              B        |L1.6494|
                  |L1.6192|
;;;1462   																			case 1:
;;;1463   																				      
;;;1464   																						 {
;;;1465   																							 //display_graphic_win_dir_39x64(display_out_dir);
;;;1466   																							 LCD_buffer[1] &= 0x08;
001830  484f              LDR      r0,|L1.6512|
001832  7840              LDRB     r0,[r0,#1]  ; LCD_buffer
001834  f0000008          AND      r0,r0,#8
001838  494d              LDR      r1,|L1.6512|
00183a  7048              STRB     r0,[r1,#1]
;;;1467   																							 LCD_buffer[1] |= 0x02;
00183c  4608              MOV      r0,r1
00183e  7840              LDRB     r0,[r0,#1]  ; LCD_buffer
001840  f0400002          ORR      r0,r0,#2
001844  7048              STRB     r0,[r1,#1]
;;;1468   																						 }
;;;1469   																						 Refresh_LCD();
001846  f7fffffe          BL       Refresh_LCD
;;;1470   																					   step_motor_out();
00184a  f7fffffe          BL       step_motor_out
;;;1471   																				     shut_off_all_sensor = 0;																			       
00184e  2000              MOVS     r0,#0
001850  4944              LDR      r1,|L1.6500|
001852  7008              STRB     r0,[r1,#0]
;;;1472   																						 break;
001854  e083              B        |L1.6494|
001856  e000              B        |L1.6234|
                  |L1.6232|
001858  e05d              B        |L1.6422|
                  |L1.6234|
;;;1473   																			case 2:
;;;1474   																				     
;;;1475   																						 	
;;;1476   // 																						 power_off();
;;;1477   // 																		         //flag_CO_PW = 1;
;;;1478   // 																			       
;;;1479   // 																             all_power_state = 0;
;;;1480   // 																			       bsp_LedOn(7);
;;;1481   																			       led_off_flag = 0;
00185a  2000              MOVS     r0,#0
00185c  4940              LDR      r1,|L1.6496|
00185e  311d              ADDS     r1,r1,#0x1d
001860  7008              STRB     r0,[r1,#0]
;;;1482   																			       last_recycle_shut_flag = 1;
001862  2001              MOVS     r0,#1
001864  392f              SUBS     r1,r1,#0x2f
001866  7008              STRB     r0,[r1,#0]
;;;1483   																			       shut_off_all_sensor = 1;
001868  493e              LDR      r1,|L1.6500|
00186a  7008              STRB     r0,[r1,#0]
;;;1484   																			
;;;1485   																			       TIM3->CCR2 = 0;
00186c  2000              MOVS     r0,#0
00186e  493e              LDR      r1,|L1.6504|
001870  8008              STRH     r0,[r1,#0]
;;;1486   																						 dc_motor_speed_count = 4;
001872  f04f0004          MOV      r0,#4
001876  493a              LDR      r1,|L1.6496|
001878  f1010119          ADD      r1,r1,#0x19
00187c  7008              STRB     r0,[r1,#0]
;;;1487   																						 //display_graphic_speed_33x64(display_no_speed);
;;;1488   																						 LCD_buffer[1] |= 0x08;//led speed
00187e  483c              LDR      r0,|L1.6512|
001880  7840              LDRB     r0,[r0,#1]  ; LCD_buffer
001882  f0400008          ORR      r0,r0,#8
001886  493a              LDR      r1,|L1.6512|
001888  7048              STRB     r0,[r1,#1]
;;;1489   																						 LCD_buffer[2]  = 0x00;
00188a  f04f0000          MOV      r0,#0
00188e  7088              STRB     r0,[r1,#2]
;;;1490   																			
;;;1491   																			       mode_time_switch_flag = 0;
001890  4933              LDR      r1,|L1.6496|
001892  f1a10103          SUB      r1,r1,#3
001896  7008              STRB     r0,[r1,#0]
;;;1492   																						 CO2_PW_DISABLE;
001898  f44f4000          MOV      r0,#0x8000
00189c  4939              LDR      r1,|L1.6532|
00189e  f8c10814          STR      r0,[r1,#0x814]
;;;1493   																						 flag_CO_PW = 0;
0018a2  f04f0000          MOV      r0,#0
0018a6  4935              LDR      r1,|L1.6524|
0018a8  7008              STRB     r0,[r1,#0]
;;;1494   																			       power_on_init_time_flag = 0;
0018aa  492d              LDR      r1,|L1.6496|
0018ac  f1010105          ADD      r1,r1,#5
0018b0  7008              STRB     r0,[r1,#0]
;;;1495   																			       bsp_LedOff(1);
0018b2  f04f0001          MOV      r0,#1
0018b6  f7fffffe          BL       bsp_LedOff
;;;1496   																						 bsp_LedOff(2);
0018ba  2002              MOVS     r0,#2
0018bc  f7fffffe          BL       bsp_LedOff
;;;1497   																						 bsp_LedOff(3);
0018c0  2003              MOVS     r0,#3
0018c2  f7fffffe          BL       bsp_LedOff
;;;1498   																			       //LCD_buffer[6] &= 0x07;//speed led
;;;1499   																			       flag_PM_PW = 0;
0018c6  2000              MOVS     r0,#0
0018c8  492b              LDR      r1,|L1.6520|
0018ca  7008              STRB     r0,[r1,#0]
;;;1500                                                bsp_LedOff(4);
0018cc  2004              MOVS     r0,#4
0018ce  f7fffffe          BL       bsp_LedOff
;;;1501   																						 bsp_LedOff(5);
0018d2  2005              MOVS     r0,#5
0018d4  f7fffffe          BL       bsp_LedOff
;;;1502   																						 bsp_LedOff(6);
0018d8  2006              MOVS     r0,#6
0018da  f7fffffe          BL       bsp_LedOff
;;;1503   																			       
;;;1504   																			       ANION_DISABLE;
0018de  f44f7080          MOV      r0,#0x100
0018e2  4924              LDR      r1,|L1.6516|
0018e4  6148              STR      r0,[r1,#0x14]
;;;1505   																		         anion_PW_state = 0;
0018e6  2000              MOVS     r0,#0
0018e8  491d              LDR      r1,|L1.6496|
0018ea  390a              SUBS     r1,r1,#0xa
0018ec  7008              STRB     r0,[r1,#0]
;;;1506   // 																		        // LCD_buffer[7] &= 0x07;//display_graphic_tree_clear();
;;;1507    																						 LCD_buffer[7] = 0x00;
0018ee  4920              LDR      r1,|L1.6512|
0018f0  71c8              STRB     r0,[r1,#7]
;;;1508   																			      // Clear_LCD();
;;;1509                                                {
;;;1510   																							 //display_graphic_win_dir_39x64(display_stright_dir);
;;;1511   																							 LCD_buffer[1] &= 0x08;
0018f2  4608              MOV      r0,r1
0018f4  7840              LDRB     r0,[r0,#1]  ; LCD_buffer
0018f6  f0000008          AND      r0,r0,#8
0018fa  7048              STRB     r0,[r1,#1]
;;;1512   																							 LCD_buffer[1] |= 0x04;
0018fc  4608              MOV      r0,r1
0018fe  7840              LDRB     r0,[r0,#1]  ; LCD_buffer
001900  f0400004          ORR      r0,r0,#4
001904  7048              STRB     r0,[r1,#1]
;;;1513   																						 }
;;;1514   																						 Refresh_LCD();
001906  f7fffffe          BL       Refresh_LCD
;;;1515   																						 step_motor_out();																			
00190a  e000              B        |L1.6414|
                  |L1.6412|
00190c  e06c              B        |L1.6632|
                  |L1.6414|
00190e  f7fffffe          BL       step_motor_out
;;;1516   																						 break;
001912  e024              B        |L1.6494|
                  |L1.6420|
;;;1517   																			case 3:
;;;1518   																						 																		
;;;1519   																						 break;
001914  e023              B        |L1.6494|
                  |L1.6422|
;;;1520   																			default:
;;;1521   																				     CO2_PW_DISABLE;
001916  f44f4000          MOV      r0,#0x8000
00191a  491b              LDR      r1,|L1.6536|
00191c  6008              STR      r0,[r1,#0]
;;;1522   																			       bsp_LedOff(1);
00191e  f04f0001          MOV      r0,#1
001922  f7fffffe          BL       bsp_LedOff
;;;1523   																						 bsp_LedOff(2);
001926  2002              MOVS     r0,#2
001928  f7fffffe          BL       bsp_LedOff
;;;1524   																						 bsp_LedOff(3);
00192c  2003              MOVS     r0,#3
00192e  f7fffffe          BL       bsp_LedOff
;;;1525   																			       bsp_LedOff(4);
001932  2004              MOVS     r0,#4
001934  f7fffffe          BL       bsp_LedOff
;;;1526   																						 bsp_LedOff(5);
001938  2005              MOVS     r0,#5
00193a  f7fffffe          BL       bsp_LedOff
;;;1527   																						 bsp_LedOff(6);
00193e  2006              MOVS     r0,#6
001940  f7fffffe          BL       bsp_LedOff
;;;1528   																						 flag_PM_PW = 0;
001944  2000              MOVS     r0,#0
001946  490c              LDR      r1,|L1.6520|
001948  7008              STRB     r0,[r1,#0]
;;;1529   																			       LCD_buffer[6] &= 0x07;//speed led
00194a  4809              LDR      r0,|L1.6512|
00194c  7980              LDRB     r0,[r0,#6]  ; LCD_buffer
00194e  f0000007          AND      r0,r0,#7
001952  4907              LDR      r1,|L1.6512|
001954  7188              STRB     r0,[r1,#6]
;;;1530   																						 flag_CO_PW = 0;
001956  2000              MOVS     r0,#0
001958  4908              LDR      r1,|L1.6524|
00195a  7008              STRB     r0,[r1,#0]
;;;1531   																						 break;
00195c  bf00              NOP      
                  |L1.6494|
00195e  e015              B        |L1.6540|
                  |L1.6496|
                          DCD      ||.data||+0x2f
                  |L1.6500|
                          DCD      shut_off_all_sensor
                  |L1.6504|
                          DCD      0x40000438
                  |L1.6508|
                          DCD      0x40000400
                  |L1.6512|
                          DCD      LCD_buffer
                  |L1.6516|
                          DCD      0x40011000
                  |L1.6520|
                          DCD      flag_PM_PW
                  |L1.6524|
                          DCD      flag_CO_PW
                  |L1.6528|
                          DCD      0x40010810
                  |L1.6532|
                          DCD      0x40010000
                  |L1.6536|
                          DCD      0x40010814
                  |L1.6540|
00198c  bf00              NOP                            ;1461
                  |L1.6542|
;;;1532   																			
;;;1533   																	}
;;;1534                                     																
;;;1535   																	
;;;1536   													  }
;;;1537   														
;;;1538   														break;
00198e  e0ec              B        |L1.7018|
                  |L1.6544|
;;;1539   														
;;;1540   				case KEY_DOWN_K5:	//anion power
;;;1541           case IR_KEY_ANION:			
001990  bf00              NOP      
                  |L1.6546|
;;;1542   					                  
;;;1543   					                  if(all_power_state==1)
001992  4878              LDR      r0,|L1.7028|
001994  7800              LDRB     r0,[r0,#0]  ; all_power_state
001996  2801              CMP      r0,#1
001998  d125              BNE      |L1.6630|
;;;1544   														{			
;;;1545   															    speak_one_time();
00199a  f7fffffe          BL       speak_one_time
;;;1546   																	if(anion_PW_state==0)
00199e  4875              LDR      r0,|L1.7028|
0019a0  380b              SUBS     r0,r0,#0xb
0019a2  7800              LDRB     r0,[r0,#0]  ; anion_PW_state
0019a4  b988              CBNZ     r0,|L1.6602|
;;;1547   																	{
;;;1548   																		ANION_EN;
0019a6  f44f7080          MOV      r0,#0x100
0019aa  4973              LDR      r1,|L1.7032|
0019ac  6108              STR      r0,[r1,#0x10]
;;;1549   																		anion_PW_state = 1;
0019ae  2001              MOVS     r0,#1
0019b0  4970              LDR      r1,|L1.7028|
0019b2  390b              SUBS     r1,r1,#0xb
0019b4  7008              STRB     r0,[r1,#0]
;;;1550   																		LCD_buffer[7] |= 0x08;//display_graphic_tree_32x64(display_tree);
0019b6  4871              LDR      r0,|L1.7036|
0019b8  79c0              LDRB     r0,[r0,#7]  ; LCD_buffer
0019ba  f0400008          ORR      r0,r0,#8
0019be  496f              LDR      r1,|L1.7036|
0019c0  71c8              STRB     r0,[r1,#7]
0019c2  e010              B        |L1.6630|
                  |L1.6596|
0019c4  e0d4              B        |L1.7024|
                  |L1.6598|
0019c6  e010              B        |L1.6634|
                  |L1.6600|
0019c8  e0ce              B        |L1.7016|
                  |L1.6602|
;;;1551   																	}
;;;1552   																	else
;;;1553   																	{
;;;1554   																		ANION_DISABLE;
0019ca  f44f7080          MOV      r0,#0x100
0019ce  496a              LDR      r1,|L1.7032|
0019d0  6148              STR      r0,[r1,#0x14]
;;;1555   																		anion_PW_state = 0;
0019d2  2000              MOVS     r0,#0
0019d4  4967              LDR      r1,|L1.7028|
0019d6  390b              SUBS     r1,r1,#0xb
0019d8  7008              STRB     r0,[r1,#0]
;;;1556   																		LCD_buffer[7] &= 0x07;//display_graphic_tree_clear();
0019da  4868              LDR      r0,|L1.7036|
0019dc  79c0              LDRB     r0,[r0,#7]  ; LCD_buffer
0019de  f0000007          AND      r0,r0,#7
0019e2  4966              LDR      r1,|L1.7036|
0019e4  71c8              STRB     r0,[r1,#7]
                  |L1.6630|
;;;1557   																	}
;;;1558   													  }
;;;1559   														
;;;1560   														break;
0019e6  e0c0              B        |L1.7018|
                  |L1.6632|
;;;1561   														
;;;1562   			  case KEY_DOWN_K6:	//TIME
;;;1563           case IR_KEY_TIME:	//第6键		
0019e8  bf00              NOP      
                  |L1.6634|
;;;1564   					                  
;;;1565   					                  if(all_power_state==1)
0019ea  4862              LDR      r0,|L1.7028|
0019ec  7800              LDRB     r0,[r0,#0]  ; all_power_state
0019ee  2801              CMP      r0,#1
0019f0  d172              BNE      |L1.6872|
;;;1566   														{	
;;;1567   															    speak_one_time();
0019f2  f7fffffe          BL       speak_one_time
;;;1568   															    if(timing_state<5)
0019f6  485f              LDR      r0,|L1.7028|
0019f8  301a              ADDS     r0,r0,#0x1a
0019fa  7800              LDRB     r0,[r0,#0]  ; timing_state
0019fc  2805              CMP      r0,#5
0019fe  da07              BGE      |L1.6672|
;;;1569   																	{
;;;1570   																		timing_state++;
001a00  485c              LDR      r0,|L1.7028|
001a02  301a              ADDS     r0,r0,#0x1a
001a04  7800              LDRB     r0,[r0,#0]  ; timing_state
001a06  1c40              ADDS     r0,r0,#1
001a08  495a              LDR      r1,|L1.7028|
001a0a  311a              ADDS     r1,r1,#0x1a
001a0c  7008              STRB     r0,[r1,#0]
001a0e  e003              B        |L1.6680|
                  |L1.6672|
;;;1571   																	}
;;;1572   																	else
;;;1573   																	{
;;;1574   																		timing_state = 0;
001a10  2000              MOVS     r0,#0
001a12  4958              LDR      r1,|L1.7028|
001a14  311a              ADDS     r1,r1,#0x1a
001a16  7008              STRB     r0,[r1,#0]
                  |L1.6680|
;;;1575   																	}
;;;1576   																	
;;;1577   																	if(timing_state!=5)
001a18  4856              LDR      r0,|L1.7028|
001a1a  301a              ADDS     r0,r0,#0x1a
001a1c  7800              LDRB     r0,[r0,#0]  ; timing_state
001a1e  2805              CMP      r0,#5
001a20  d004              BEQ      |L1.6700|
;;;1578   																	{
;;;1579   																		timing_flag = 1;
001a22  2001              MOVS     r0,#1
001a24  4953              LDR      r1,|L1.7028|
001a26  390c              SUBS     r1,r1,#0xc
001a28  7008              STRB     r0,[r1,#0]
001a2a  e003              B        |L1.6708|
                  |L1.6700|
;;;1580   																	}
;;;1581   																	else
;;;1582   																	{
;;;1583   																		timing_flag = 0;
001a2c  2000              MOVS     r0,#0
001a2e  4951              LDR      r1,|L1.7028|
001a30  390c              SUBS     r1,r1,#0xc
001a32  7008              STRB     r0,[r1,#0]
                  |L1.6708|
;;;1584   																	}
;;;1585   																	bsp_StartAutoTimer(0,60000);
001a34  f64e2160          MOV      r1,#0xea60
001a38  2000              MOVS     r0,#0
001a3a  f7fffffe          BL       bsp_StartAutoTimer
;;;1586   																	switch(timing_state)
001a3e  484d              LDR      r0,|L1.7028|
001a40  301a              ADDS     r0,r0,#0x1a
001a42  7800              LDRB     r0,[r0,#0]  ; timing_state
001a44  2806              CMP      r0,#6
001a46  d275              BCS      |L1.6964|
001a48  e8dff000          TBB      [pc,r0]
001a4c  03192f47          DCB      0x03,0x19,0x2f,0x47
001a50  5d75              DCB      0x5d,0x75
;;;1587   																	{
;;;1588   																		case 0:
;;;1589   																					 timing_time_min_value = 120;
001a52  2078              MOVS     r0,#0x78
001a54  4947              LDR      r1,|L1.7028|
001a56  3908              SUBS     r1,r1,#8
001a58  6008              STR      r0,[r1,#0]  ; timing_time_min_value
;;;1590   																		       //display_graphic_54x64_single_clear();
;;;1591   																		       //display_graphic_27x64_single(display_time_2);
;;;1592   																		       LCD_buffer[3]  = 0x00;//speed led
001a5a  2000              MOVS     r0,#0
001a5c  4947              LDR      r1,|L1.7036|
001a5e  70c8              STRB     r0,[r1,#3]
;;;1593   																					 LCD_buffer[4]  = 0x08;//speed led
001a60  2008              MOVS     r0,#8
001a62  7108              STRB     r0,[r1,#4]
;;;1594   																					 LCD_buffer[5]  = 0x0D;//speed led
001a64  200d              MOVS     r0,#0xd
001a66  7148              STRB     r0,[r1,#5]
;;;1595   																					 LCD_buffer[6] &= 0x08;//speed led
001a68  4608              MOV      r0,r1
001a6a  7980              LDRB     r0,[r0,#6]  ; LCD_buffer
001a6c  f0000008          AND      r0,r0,#8
001a70  7188              STRB     r0,[r1,#6]
;;;1596   																					 LCD_buffer[6] |= 0x03;//speed led
001a72  4608              MOV      r0,r1
001a74  7980              LDRB     r0,[r0,#6]  ; LCD_buffer
001a76  f0400003          ORR      r0,r0,#3
001a7a  7188              STRB     r0,[r1,#6]
;;;1597   																					 break;
001a7c  e072              B        |L1.7012|
;;;1598   																		case 1:
;;;1599   																					 timing_time_min_value = 240;
001a7e  20f0              MOVS     r0,#0xf0
001a80  493c              LDR      r1,|L1.7028|
001a82  3908              SUBS     r1,r1,#8
001a84  6008              STR      r0,[r1,#0]  ; timing_time_min_value
;;;1600   																	         //display_graphic_27x64_single(display_time_4);
;;;1601   																		       LCD_buffer[3]  = 0x00;//speed led
001a86  2000              MOVS     r0,#0
001a88  493c              LDR      r1,|L1.7036|
001a8a  70c8              STRB     r0,[r1,#3]
;;;1602   																					 LCD_buffer[4]  = 0x08;//speed led
001a8c  2008              MOVS     r0,#8
001a8e  7108              STRB     r0,[r1,#4]
;;;1603   																					 LCD_buffer[5]  = 0x02;//speed led
001a90  2002              MOVS     r0,#2
001a92  7148              STRB     r0,[r1,#5]
;;;1604   																					 LCD_buffer[6] &= 0x08;//speed led
001a94  4608              MOV      r0,r1
001a96  7980              LDRB     r0,[r0,#6]  ; LCD_buffer
001a98  f0000008          AND      r0,r0,#8
001a9c  7188              STRB     r0,[r1,#6]
;;;1605   																					 LCD_buffer[6] |= 0x07;//speed led
001a9e  4608              MOV      r0,r1
001aa0  7980              LDRB     r0,[r0,#6]  ; LCD_buffer
001aa2  f0400007          ORR      r0,r0,#7
001aa6  7188              STRB     r0,[r1,#6]
;;;1606   																					 break;
001aa8  e05c              B        |L1.7012|
;;;1607   																		case 2:
;;;1608   																					 timing_time_min_value = 480;
001aaa  f44f70f0          MOV      r0,#0x1e0
001aae  4931              LDR      r1,|L1.7028|
001ab0  3908              SUBS     r1,r1,#8
001ab2  6008              STR      r0,[r1,#0]  ; timing_time_min_value
;;;1609   																		       //display_graphic_27x64_single(display_time_8);
;;;1610   																		       LCD_buffer[3]  = 0x00;//speed led
001ab4  2000              MOVS     r0,#0
001ab6  4931              LDR      r1,|L1.7036|
001ab8  70c8              STRB     r0,[r1,#3]
;;;1611   																					 LCD_buffer[4]  = 0x08;//speed led
001aba  2008              MOVS     r0,#8
001abc  7108              STRB     r0,[r1,#4]
;;;1612   																					 LCD_buffer[5]  = 0x0F;//speed led
001abe  200f              MOVS     r0,#0xf
001ac0  7148              STRB     r0,[r1,#5]
;;;1613   																					 LCD_buffer[6] &= 0x08;//speed led
001ac2  4608              MOV      r0,r1
001ac4  7980              LDRB     r0,[r0,#6]  ; LCD_buffer
001ac6  f0000008          AND      r0,r0,#8
001aca  7188              STRB     r0,[r1,#6]
;;;1614   																					 LCD_buffer[6] |= 0x07;//speed led
001acc  4608              MOV      r0,r1
001ace  7980              LDRB     r0,[r0,#6]  ; LCD_buffer
001ad0  f0400007          ORR      r0,r0,#7
001ad4  7188              STRB     r0,[r1,#6]
;;;1615   																					 break;
001ad6  e045              B        |L1.7012|
                  |L1.6872|
001ad8  e045              B        |L1.7014|
;;;1616   																		case 3:
;;;1617   																					 timing_time_min_value = 720;
001ada  f44f7034          MOV      r0,#0x2d0
001ade  4925              LDR      r1,|L1.7028|
001ae0  3908              SUBS     r1,r1,#8
001ae2  6008              STR      r0,[r1,#0]  ; timing_time_min_value
;;;1618   																		       //display_graphic_27x64_1(display_time_1);
;;;1619   																		       //display_graphic_27x64_2(display_time_2);
;;;1620   																					 LCD_buffer[3]  = 0x00;//speed led
001ae4  2000              MOVS     r0,#0
001ae6  4925              LDR      r1,|L1.7036|
001ae8  70c8              STRB     r0,[r1,#3]
;;;1621   																					 LCD_buffer[4]  = 0x0D;//speed led
001aea  200d              MOVS     r0,#0xd
001aec  7108              STRB     r0,[r1,#4]
;;;1622   																					 LCD_buffer[5]  = 0x0D;//speed led
001aee  7148              STRB     r0,[r1,#5]
;;;1623   																					 LCD_buffer[6] &= 0x08;//speed led
001af0  4608              MOV      r0,r1
001af2  7980              LDRB     r0,[r0,#6]  ; LCD_buffer
001af4  f0000008          AND      r0,r0,#8
001af8  7188              STRB     r0,[r1,#6]
;;;1624   																					 LCD_buffer[6] |= 0x03;//speed led
001afa  4608              MOV      r0,r1
001afc  7980              LDRB     r0,[r0,#6]  ; LCD_buffer
001afe  f0400003          ORR      r0,r0,#3
001b02  7188              STRB     r0,[r1,#6]
;;;1625   																					 break;
001b04  e02e              B        |L1.7012|
;;;1626   																		
;;;1627   																		case 4:
;;;1628   																					 timing_time_min_value = 1440;
001b06  f44f60b4          MOV      r0,#0x5a0
001b0a  491a              LDR      r1,|L1.7028|
001b0c  3908              SUBS     r1,r1,#8
001b0e  6008              STR      r0,[r1,#0]  ; timing_time_min_value
;;;1629   																		       //display_graphic_27x64_1(display_time_2);
;;;1630   																		       //display_graphic_27x64_2(display_time_4);																	
;;;1631   																		       LCD_buffer[3]  = 0x0D;//speed led
001b10  200d              MOVS     r0,#0xd
001b12  491a              LDR      r1,|L1.7036|
001b14  70c8              STRB     r0,[r1,#3]
;;;1632   																					 LCD_buffer[4]  = 0x0B;//speed led
001b16  200b              MOVS     r0,#0xb
001b18  7108              STRB     r0,[r1,#4]
;;;1633   																					 LCD_buffer[5]  = 0x02;//speed led
001b1a  2002              MOVS     r0,#2
001b1c  7148              STRB     r0,[r1,#5]
;;;1634   																					 LCD_buffer[6] &= 0x08;//speed led
001b1e  4608              MOV      r0,r1
001b20  7980              LDRB     r0,[r0,#6]  ; LCD_buffer
001b22  f0000008          AND      r0,r0,#8
001b26  7188              STRB     r0,[r1,#6]
;;;1635   																					 LCD_buffer[6] |= 0x07;//speed led
001b28  4608              MOV      r0,r1
001b2a  7980              LDRB     r0,[r0,#6]  ; LCD_buffer
001b2c  f0400007          ORR      r0,r0,#7
001b30  7188              STRB     r0,[r1,#6]
;;;1636   																					 break;
001b32  e017              B        |L1.7012|
                  |L1.6964|
001b34  e011              B        |L1.7002|
;;;1637   																		case 5:
;;;1638   //                                         //ff																	
;;;1639   																		       LCD_buffer[3]  = 0x0F;//speed led
001b36  200f              MOVS     r0,#0xf
001b38  4910              LDR      r1,|L1.7036|
001b3a  70c8              STRB     r0,[r1,#3]
;;;1640   																					 LCD_buffer[4]  = 0x0D;//speed led
001b3c  200d              MOVS     r0,#0xd
001b3e  7108              STRB     r0,[r1,#4]
;;;1641   																					 LCD_buffer[5]  = 0x0F;//speed led
001b40  200f              MOVS     r0,#0xf
001b42  7148              STRB     r0,[r1,#5]
;;;1642   																					 LCD_buffer[6] &= 0x08;//speed led
001b44  4608              MOV      r0,r1
001b46  7980              LDRB     r0,[r0,#6]  ; LCD_buffer
001b48  f0000008          AND      r0,r0,#8
001b4c  7188              STRB     r0,[r1,#6]
;;;1643   																					 LCD_buffer[6] |= 0x05;//speed led
001b4e  4608              MOV      r0,r1
001b50  7980              LDRB     r0,[r0,#6]  ; LCD_buffer
001b52  f0400005          ORR      r0,r0,#5
001b56  7188              STRB     r0,[r1,#6]
;;;1644   																					 break;
001b58  e004              B        |L1.7012|
                  |L1.7002|
;;;1645   																		default:
;;;1646   																					 timing_time_min_value = 60;
001b5a  203c              MOVS     r0,#0x3c
001b5c  4905              LDR      r1,|L1.7028|
001b5e  3908              SUBS     r1,r1,#8
001b60  6008              STR      r0,[r1,#0]  ; timing_time_min_value
;;;1647   																					 break;
001b62  bf00              NOP      
                  |L1.7012|
001b64  bf00              NOP                            ;1597
                  |L1.7014|
;;;1648   																	}
;;;1649   																	
;;;1650   													  }
;;;1651   														
;;;1652   														break;
001b66  e000              B        |L1.7018|
                  |L1.7016|
;;;1653   				
;;;1654   				default:
;;;1655   														if (ucKeyCode >= IR_KEY_STRAT)
;;;1656   														{
;;;1657   														}
;;;1658   														break;
001b68  bf00              NOP      
                  |L1.7018|
001b6a  bf00              NOP                            ;1166
;;;1659   			}
;;;1660   			
;;;1661   			Refresh_LCD();
001b6c  f7fffffe          BL       Refresh_LCD
                  |L1.7024|
001b70  f7febe70          B        |L1.2132|
;;;1662   		}
;;;1663   		
;;;1664   	}
;;;1665   }
                          ENDP

                  |L1.7028|
                          DCD      ||.data||+0x30
                  |L1.7032|
                          DCD      0x40011000
                  |L1.7036|
                          DCD      LCD_buffer

                          AREA ||.bss||, DATA, NOINIT, ALIGN=0

                  display_num_PM
                          %        12
                  keys_show
                          %        30

                          AREA ||.data||, DATA, ALIGN=2

                  get_CO2_CMD
000000  ff018600          DCB      0xff,0x01,0x86,0x00
000004  00000000          DCB      0x00,0x00,0x00,0x00
000008  79                DCB      0x79
                  flag_PM_PW
000009  00                DCB      0x00
                  flag_CO_PW
00000a  00                DCB      0x00
                  shut_off_all_sensor
00000b  00                DCB      0x00
                  display_conc_PM
00000c  00000000          DCB      0x00,0x00,0x00,0x00
000010  000000            DCB      0x00,0x00,0x00
                  display_CO2_conc
000013  00                DCB      0x00
                          DCD      0x00000000
000018  0000              DCB      0x00,0x00
                  speed_count_direct
00001a  00                DCB      0x00
                  step_motor_position
00001b  00                DCB      0x00
                  step_motor_moving_flag
00001c  00                DCB      0x00
                  last_recycle_shut_flag
00001d  000000            DCB      0x00,0x00,0x00
                  timing_count
                          DCD      0x00000000
                  timing_flag
000024  00                DCB      0x00
                  anion_PW_state
000025  000000            DCB      0x00,0x00,0x00
                  timing_time_min_value
                          DCD      0x00000000
                  mode_time_switch_flag
00002c  00                DCB      0x00
                  work_0_1_mode_state
00002d  00                DCB      0x00
                  work_mode
00002e  00                DCB      0x00
                  manul_flag
00002f  00                DCB      0x00
                  all_power_state
000030  00                DCB      0x00
                  display_chang_face_flag
000031  00                DCB      0x00
                  co2_pollute_flag
000032  00                DCB      0x00
                  PM2_5_pollute_flag
000033  00                DCB      0x00
                  power_on_init_time_flag
000034  00                DCB      0x00
                  pollute_flag_last
000035  000000            DCB      0x00,0x00,0x00
                  mode_time_count
                          DCD      0x00000000
                  start_delay_30_flag
00003c  00                DCB      0x00
                  keys_show_count
00003d  000000            DCB      0x00,0x00,0x00
                  step_state
                          DCD      0x00000000
                  step_state_init
                          DCD      0x00000000
                  dc_motor_speed_count
000048  00                DCB      0x00
                  air_dir_recycle_count
000049  00                DCB      0x00
                  timing_state
00004a  00                DCB      0x00
                  last_dc_motor_speed_count
00004b  00                DCB      0x00
                  led_off_flag
00004c  00000000          DCB      0x00,0x00,0x00,0x00
                  Ctr_Flag
                          DCD      0x00000000
                  gyro_zero_compansate
000054  0000              DCB      0x00,0x00
                  Co2_value
000056  0000              DCB      0x00,0x00
                  PM2_5_concentration
000058  00000000          DCB      0x00,0x00,0x00,0x00
                  PM2_5_value
                          DCD      0x00000000

                  __ARM_use_no_argv EQU 0
